
/home/edabk2003/TranQuangHuyK66/DigitalDesign/FinalExam/ibex-reference/dv/riscv_compliance/riscv-compliance/work/rv32i_m/I/ori-01.elf:     file format elf32-littleriscv


Disassembly of section .text.trap:

00000000 <_trap_start>:
   0:	0340006f          	j	34 <_trap_exception>
   4:	0540006f          	j	58 <_int_exc>
   8:	0500006f          	j	58 <_int_exc>
   c:	04c0006f          	j	58 <_int_exc>
  10:	0480006f          	j	58 <_int_exc>
  14:	0440006f          	j	58 <_int_exc>
  18:	0400006f          	j	58 <_int_exc>
  1c:	03c0006f          	j	58 <_int_exc>
  20:	0380006f          	j	58 <_int_exc>
  24:	0340006f          	j	58 <_int_exc>
  28:	0300006f          	j	58 <_int_exc>
  2c:	02c0006f          	j	58 <_int_exc>
  30:	0280006f          	j	58 <_int_exc>

00000034 <_trap_exception>:
  34:	34202573          	csrr	a0,mcause
  38:	00b00593          	li	a1,11
  3c:	00b50863          	beq	a0,a1,4c <_trap_exception+0x18>
  40:	00004597          	auipc	a1,0x4
  44:	fd058593          	addi	a1,a1,-48 # 4010 <begin_signature>
  48:	00a5a023          	sw	a0,0(a1)
  4c:	00000517          	auipc	a0,0x0
  50:	07050513          	addi	a0,a0,112 # bc <write_tohost>
  54:	00050067          	jr	a0

00000058 <_int_exc>:
  58:	00000517          	auipc	a0,0x0
  5c:	06450513          	addi	a0,a0,100 # bc <write_tohost>
  60:	00050067          	jr	a0

Disassembly of section .text.init:

00000080 <_start>:
      80:	0480006f          	j	c8 <reset_vector>

00000084 <trap_vector>:
      84:	34202f73          	csrr	t5,mcause
      88:	00800f93          	li	t6,8
      8c:	03ff0863          	beq	t5,t6,bc <write_tohost>
      90:	00900f93          	li	t6,9
      94:	03ff0463          	beq	t5,t6,bc <write_tohost>
      98:	00b00f93          	li	t6,11
      9c:	03ff0063          	beq	t5,t6,bc <write_tohost>
      a0:	00000f13          	li	t5,0
      a4:	000f0463          	beqz	t5,ac <trap_vector+0x28>
      a8:	000f0067          	jr	t5
      ac:	34202f73          	csrr	t5,mcause
      b0:	000f5463          	bgez	t5,b8 <handle_exception>
      b4:	0040006f          	j	b8 <handle_exception>

000000b8 <handle_exception>:
      b8:	5391e193          	ori	gp,gp,1337

000000bc <write_tohost>:
      bc:	00003f17          	auipc	t5,0x3
      c0:	f43f2223          	sw	gp,-188(t5) # 3000 <tohost>
      c4:	ff9ff06f          	j	bc <write_tohost>

000000c8 <reset_vector>:
      c8:	f1402573          	csrr	a0,mhartid
      cc:	00051063          	bnez	a0,cc <reset_vector+0x4>
      d0:	00000193          	li	gp,0
      d4:	00000297          	auipc	t0,0x0
      d8:	fb028293          	addi	t0,t0,-80 # 84 <trap_vector>
      dc:	30529073          	csrw	mtvec,t0
      e0:	00100513          	li	a0,1
      e4:	01f51513          	slli	a0,a0,0x1f
      e8:	00054863          	bltz	a0,f8 <reset_vector+0x30>
      ec:	0ff0000f          	fence
      f0:	00100193          	li	gp,1
      f4:	00000073          	ecall
      f8:	00000293          	li	t0,0
      fc:	00028e63          	beqz	t0,118 <reset_vector+0x50>
     100:	10529073          	csrw	stvec,t0
     104:	0000b2b7          	lui	t0,0xb
     108:	10928293          	addi	t0,t0,265 # b109 <_end+0x6705>
     10c:	30229073          	csrw	medeleg,t0
     110:	30202373          	csrr	t1,medeleg
     114:	fa6292e3          	bne	t0,t1,b8 <handle_exception>
     118:	30005073          	csrwi	mstatus,0
     11c:	00002537          	lui	a0,0x2
     120:	80050513          	addi	a0,a0,-2048 # 1800 <inst_377+0x8>
     124:	30052073          	csrs	mstatus,a0
     128:	00000297          	auipc	t0,0x0
     12c:	01428293          	addi	t0,t0,20 # 13c <begin_testcode>
     130:	34129073          	csrw	mepc,t0
     134:	f1402573          	csrr	a0,mhartid
     138:	30200073          	mret

0000013c <begin_testcode>:
     13c:	00000013          	nop

00000140 <rvtest_init>:
     140:	feedc0b7          	lui	ra,0xfeedc
     144:	ead08093          	addi	ra,ra,-339 # feedbead <_end+0xfeed74a9>
     148:	ff76e137          	lui	sp,0xff76e
     14c:	f5610113          	addi	sp,sp,-170 # ff76df56 <_end+0xff769552>
     150:	7fbb71b7          	lui	gp,0x7fbb7
     154:	fab18193          	addi	gp,gp,-85 # 7fbb6fab <_end+0x7fbb25a7>
     158:	bfddb237          	lui	tp,0xbfddb
     15c:	7d520213          	addi	tp,tp,2005 # bfddb7d5 <_end+0xbfdd6dd1>
     160:	00000297          	auipc	t0,0x0
     164:	0d828293          	addi	t0,t0,216 # 238 <rvtest_code_begin>
     168:	00004317          	auipc	t1,0x4
     16c:	e9830313          	addi	t1,t1,-360 # 4000 <rvtest_data_begin>
     170:	b7fbb3b7          	lui	t2,0xb7fbb
     174:	6fa38393          	addi	t2,t2,1786 # b7fbb6fa <_end+0xb7fb6cf6>
     178:	5bfde437          	lui	s0,0x5bfde
     17c:	b7d40413          	addi	s0,s0,-1155 # 5bfddb7d <_end+0x5bfd9179>
     180:	adfef4b7          	lui	s1,0xadfef
     184:	dbe48493          	addi	s1,s1,-578 # adfeedbe <_end+0xadfea3ba>
     188:	56ff7537          	lui	a0,0x56ff7
     18c:	6df50513          	addi	a0,a0,1759 # 56ff76df <_end+0x56ff2cdb>
     190:	ab7fc5b7          	lui	a1,0xab7fc
     194:	b6f58593          	addi	a1,a1,-1169 # ab7fbb6f <_end+0xab7f716b>
     198:	d5bfe637          	lui	a2,0xd5bfe
     19c:	db760613          	addi	a2,a2,-585 # d5bfddb7 <_end+0xd5bf93b3>
     1a0:	eadff6b7          	lui	a3,0xeadff
     1a4:	edb68693          	addi	a3,a3,-293 # eadfeedb <_end+0xeadfa4d7>
     1a8:	f56ff737          	lui	a4,0xf56ff
     1ac:	76d70713          	addi	a4,a4,1901 # f56ff76d <_end+0xf56fad69>
     1b0:	fab807b7          	lui	a5,0xfab80
     1b4:	bb678793          	addi	a5,a5,-1098 # fab7fbb6 <_end+0xfab7b1b2>
     1b8:	7d5c0837          	lui	a6,0x7d5c0
     1bc:	ddb80813          	addi	a6,a6,-549 # 7d5bfddb <_end+0x7d5bb3d7>
     1c0:	beae08b7          	lui	a7,0xbeae0
     1c4:	eed88893          	addi	a7,a7,-275 # beadfeed <_end+0xbeadb4e9>
     1c8:	df570937          	lui	s2,0xdf570
     1cc:	f7690913          	addi	s2,s2,-138 # df56ff76 <_end+0xdf56b572>
     1d0:	6fab89b7          	lui	s3,0x6fab8
     1d4:	fbb98993          	addi	s3,s3,-69 # 6fab7fbb <_end+0x6fab35b7>
     1d8:	b7d5ca37          	lui	s4,0xb7d5c
     1dc:	fdda0a13          	addi	s4,s4,-35 # b7d5bfdd <_end+0xb7d575d9>
     1e0:	dbeaeab7          	lui	s5,0xdbeae
     1e4:	feea8a93          	addi	s5,s5,-18 # dbeadfee <_end+0xdbea95ea>
     1e8:	6df57b37          	lui	s6,0x6df57
     1ec:	ff7b0b13          	addi	s6,s6,-9 # 6df56ff7 <_end+0x6df525f3>
     1f0:	b6fabbb7          	lui	s7,0xb6fab
     1f4:	7fbb8b93          	addi	s7,s7,2043 # b6fab7fb <_end+0xb6fa6df7>
     1f8:	db7d6c37          	lui	s8,0xdb7d6
     1fc:	bfdc0c13          	addi	s8,s8,-1027 # db7d5bfd <_end+0xdb7d11f9>
     200:	edbebcb7          	lui	s9,0xedbeb
     204:	dfec8c93          	addi	s9,s9,-514 # edbeadfe <_end+0xedbe63fa>
     208:	76df5d37          	lui	s10,0x76df5
     20c:	6ffd0d13          	addi	s10,s10,1791 # 76df56ff <_end+0x76df0cfb>
     210:	bb6fbdb7          	lui	s11,0xbb6fb
     214:	b7fd8d93          	addi	s11,s11,-1153 # bb6fab7f <_end+0xbb6f617b>
     218:	ddb7de37          	lui	t3,0xddb7d
     21c:	5bfe0e13          	addi	t3,t3,1471 # ddb7d5bf <_end+0xddb78bbb>
     220:	eedbfeb7          	lui	t4,0xeedbf
     224:	adfe8e93          	addi	t4,t4,-1313 # eedbeadf <_end+0xeedba0db>
     228:	f76dff37          	lui	t5,0xf76df
     22c:	56ff0f13          	addi	t5,t5,1391 # f76df56f <_end+0xf76dab6b>
     230:	fbb70fb7          	lui	t6,0xfbb70
     234:	ab7f8f93          	addi	t6,t6,-1353 # fbb6fab7 <_end+0xfbb6b0b3>

00000238 <rvtest_code_begin>:
     238:	00004117          	auipc	sp,0x4
     23c:	dd810113          	addi	sp,sp,-552 # 4010 <begin_signature>

00000240 <inst_0>:
     240:	dff00293          	li	t0,-513
     244:	8002eb13          	ori	s6,t0,-2048
     248:	01612023          	sw	s6,0(sp)

0000024c <inst_1>:
     24c:	00000d93          	li	s11,0
     250:	000ded93          	ori	s11,s11,0
     254:	01b12223          	sw	s11,4(sp)

00000258 <inst_2>:
     258:	333338b7          	lui	a7,0x33333
     25c:	33488893          	addi	a7,a7,820 # 33333334 <_end+0x3332e930>
     260:	7ff8e413          	ori	s0,a7,2047
     264:	00812423          	sw	s0,8(sp)

00000268 <inst_3>:
     268:	ffff5a37          	lui	s4,0xffff5
     26c:	afca0a13          	addi	s4,s4,-1284 # ffff4afc <_end+0xffff00f8>
     270:	001a6093          	ori	ra,s4,1
     274:	00112623          	sw	ra,12(sp)

00000278 <inst_4>:
     278:	80000637          	lui	a2,0x80000
     27c:	02d66993          	ori	s3,a2,45
     280:	01312823          	sw	s3,16(sp)

00000284 <inst_5>:
     284:	80000437          	lui	s0,0x80000
     288:	fff40413          	addi	s0,s0,-1 # 7fffffff <_end+0x7fffb5fb>
     28c:	55546193          	ori	gp,s0,1365
     290:	00312a23          	sw	gp,20(sp)

00000294 <inst_6>:
     294:	00100e13          	li	t3,1
     298:	667e6d13          	ori	s10,t3,1639
     29c:	01a12c23          	sw	s10,24(sp)

000002a0 <inst_7>:
     2a0:	00700813          	li	a6,7
     2a4:	ff986b93          	ori	s7,a6,-7
     2a8:	01712e23          	sw	s7,28(sp)

000002ac <inst_8>:
     2ac:	00040cb7          	lui	s9,0x40
     2b0:	002cef93          	ori	t6,s9,2
     2b4:	03f12023          	sw	t6,32(sp)

000002b8 <inst_9>:
     2b8:	20000bb7          	lui	s7,0x20000
     2bc:	004be593          	ori	a1,s7,4
     2c0:	02b12223          	sw	a1,36(sp)

000002c4 <inst_10>:
     2c4:	dff00713          	li	a4,-513
     2c8:	00876893          	ori	a7,a4,8
     2cc:	03112423          	sw	a7,40(sp)

000002d0 <inst_11>:
     2d0:	00200f93          	li	t6,2
     2d4:	010fe393          	ori	t2,t6,16
     2d8:	02712623          	sw	t2,44(sp)

000002dc <inst_12>:
     2dc:	00008ab7          	lui	s5,0x8
     2e0:	020ae213          	ori	tp,s5,32
     2e4:	02412823          	sw	tp,48(sp)

000002e8 <inst_13>:
     2e8:	000017b7          	lui	a5,0x1
     2ec:	80078793          	addi	a5,a5,-2048 # 800 <inst_108+0xc>
     2f0:	0407e293          	ori	t0,a5,64
     2f4:	02512a23          	sw	t0,52(sp)

000002f8 <inst_14>:
     2f8:	fffc0f37          	lui	t5,0xfffc0
     2fc:	ffff0f13          	addi	t5,t5,-1 # fffbffff <_end+0xfffbb5fb>
     300:	080f6c93          	ori	s9,t5,128
     304:	03912c23          	sw	s9,56(sp)

00000308 <inst_15>:
     308:	ffb00593          	li	a1,-5
     30c:	1005ef13          	ori	t5,a1,256
     310:	03e12e23          	sw	t5,60(sp)

00000314 <inst_16>:
     314:	fff80237          	lui	tp,0xfff80
     318:	fff20213          	addi	tp,tp,-1 # fff7ffff <_end+0xfff7b5fb>
     31c:	20026513          	ori	a0,tp,512
     320:	04a12023          	sw	a0,64(sp)

00000324 <inst_17>:
     324:	c00006b7          	lui	a3,0xc0000
     328:	fff68693          	addi	a3,a3,-1 # bfffffff <_end+0xbfffb5fb>
     32c:	4006e013          	ori	zero,a3,1024
     330:	04012223          	sw	zero,68(sp)

00000334 <inst_18>:
     334:	fdf00d13          	li	s10,-33
     338:	ffed6313          	ori	t1,s10,-2
     33c:	04612423          	sw	t1,72(sp)

00000340 <inst_19>:
     340:	0000b9b7          	lui	s3,0xb
     344:	50398993          	addi	s3,s3,1283 # b503 <_end+0x6aff>
     348:	ffd9e913          	ori	s2,s3,-3
     34c:	05212623          	sw	s2,76(sp)

00000350 <inst_20>:
     350:	100003b7          	lui	t2,0x10000
     354:	ffb3ea93          	ori	s5,t2,-5
     358:	05512823          	sw	s5,80(sp)

0000035c <inst_21>:
     35c:	fff80c37          	lui	s8,0xfff80
     360:	fffc0c13          	addi	s8,s8,-1 # fff7ffff <_end+0xfff7b5fb>
     364:	ff7c6813          	ori	a6,s8,-9
     368:	05012a23          	sw	a6,84(sp)
     36c:	00004217          	auipc	tp,0x4
     370:	cfc20213          	addi	tp,tp,-772 # 4068 <signature_x4_0>

00000374 <inst_22>:
     374:	00000013          	nop
     378:	fef06493          	ori	s1,zero,-17
     37c:	00922023          	sw	s1,0(tp) # 0 <_trap_start>

00000380 <inst_23>:
     380:	000021b7          	lui	gp,0x2
     384:	fdf1ee13          	ori	t3,gp,-33
     388:	01c22223          	sw	t3,4(tp) # 4 <_trap_start+0x4>

0000038c <inst_24>:
     38c:	555550b7          	lui	ra,0x55555
     390:	55608093          	addi	ra,ra,1366 # 55555556 <_end+0x55550b52>
     394:	fbf0e793          	ori	a5,ra,-65
     398:	00f22423          	sw	a5,8(tp) # 8 <_trap_start+0x8>

0000039c <inst_25>:
     39c:	ffff5937          	lui	s2,0xffff5
     3a0:	afc90913          	addi	s2,s2,-1284 # ffff4afc <_end+0xffff00f8>
     3a4:	f7f96113          	ori	sp,s2,-129
     3a8:	00222623          	sw	sp,12(tp) # c <_trap_start+0xc>

000003ac <inst_26>:
     3ac:	aaaabb37          	lui	s6,0xaaaab
     3b0:	aaab0b13          	addi	s6,s6,-1366 # aaaaaaaa <_end+0xaaaa60a6>
     3b4:	effb6a13          	ori	s4,s6,-257
     3b8:	01422823          	sw	s4,16(tp) # 10 <_trap_start+0x10>

000003bc <inst_27>:
     3bc:	01000337          	lui	t1,0x1000
     3c0:	dff36693          	ori	a3,t1,-513
     3c4:	00d22a23          	sw	a3,20(tp) # 14 <_trap_start+0x14>

000003c8 <inst_28>:
     3c8:	20000eb7          	lui	t4,0x20000
     3cc:	bffee713          	ori	a4,t4,-1025
     3d0:	00e22c23          	sw	a4,24(tp) # 18 <_trap_start+0x18>

000003d4 <inst_29>:
     3d4:	ffff5137          	lui	sp,0xffff5
     3d8:	afc10113          	addi	sp,sp,-1284 # ffff4afc <_end+0xffff00f8>
     3dc:	aaa16613          	ori	a2,sp,-1366
     3e0:	00c22e23          	sw	a2,28(tp) # 1c <_trap_start+0x1c>

000003e4 <inst_30>:
     3e4:	00400493          	li	s1,4
     3e8:	0054ec13          	ori	s8,s1,5
     3ec:	03822023          	sw	s8,32(tp) # 20 <_trap_start+0x20>

000003f0 <inst_31>:
     3f0:	00800513          	li	a0,8
     3f4:	00656e93          	ori	t4,a0,6
     3f8:	03d22223          	sw	t4,36(tp) # 24 <_trap_start+0x24>

000003fc <inst_32>:
     3fc:	01000513          	li	a0,16
     400:	20056593          	ori	a1,a0,512
     404:	02b22423          	sw	a1,40(tp) # 28 <_trap_start+0x28>

00000408 <inst_33>:
     408:	02000513          	li	a0,32
     40c:	02c56593          	ori	a1,a0,44
     410:	02b22623          	sw	a1,44(tp) # 2c <_trap_start+0x2c>

00000414 <inst_34>:
     414:	04000513          	li	a0,64
     418:	00356593          	ori	a1,a0,3
     41c:	02b22823          	sw	a1,48(tp) # 30 <_trap_start+0x30>

00000420 <inst_35>:
     420:	08000513          	li	a0,128
     424:	02056593          	ori	a1,a0,32
     428:	02b22a23          	sw	a1,52(tp) # 34 <_trap_exception>

0000042c <inst_36>:
     42c:	10000513          	li	a0,256
     430:	fbf56593          	ori	a1,a0,-65
     434:	02b22c23          	sw	a1,56(tp) # 38 <_trap_exception+0x4>

00000438 <inst_37>:
     438:	20000513          	li	a0,512
     43c:	ffa56593          	ori	a1,a0,-6
     440:	02b22e23          	sw	a1,60(tp) # 3c <_trap_exception+0x8>

00000444 <inst_38>:
     444:	40000513          	li	a0,1024
     448:	fd356593          	ori	a1,a0,-45
     44c:	04b22023          	sw	a1,64(tp) # 40 <_trap_exception+0xc>

00000450 <inst_39>:
     450:	00001537          	lui	a0,0x1
     454:	00556593          	ori	a1,a0,5
     458:	04b22223          	sw	a1,68(tp) # 44 <_trap_exception+0x10>

0000045c <inst_40>:
     45c:	00004537          	lui	a0,0x4
     460:	66556593          	ori	a1,a0,1637
     464:	04b22423          	sw	a1,72(tp) # 48 <_trap_exception+0x14>

00000468 <inst_41>:
     468:	00010537          	lui	a0,0x10
     46c:	00956593          	ori	a1,a0,9
     470:	04b22623          	sw	a1,76(tp) # 4c <_trap_exception+0x18>

00000474 <inst_42>:
     474:	00020537          	lui	a0,0x20
     478:	20056593          	ori	a1,a0,512
     47c:	04b22823          	sw	a1,80(tp) # 50 <_trap_exception+0x1c>

00000480 <inst_43>:
     480:	00080537          	lui	a0,0x80
     484:	00056593          	ori	a1,a0,0
     488:	04b22a23          	sw	a1,84(tp) # 54 <_trap_exception+0x20>

0000048c <inst_44>:
     48c:	00100537          	lui	a0,0x100
     490:	20056593          	ori	a1,a0,512
     494:	04b22c23          	sw	a1,88(tp) # 58 <_int_exc>

00000498 <inst_45>:
     498:	00200537          	lui	a0,0x200
     49c:	fd456593          	ori	a1,a0,-44
     4a0:	04b22e23          	sw	a1,92(tp) # 5c <_int_exc+0x4>

000004a4 <inst_46>:
     4a4:	00400537          	lui	a0,0x400
     4a8:	dff56593          	ori	a1,a0,-513
     4ac:	06b22023          	sw	a1,96(tp) # 60 <_int_exc+0x8>

000004b0 <inst_47>:
     4b0:	00800537          	lui	a0,0x800
     4b4:	08056593          	ori	a1,a0,128
     4b8:	06b22223          	sw	a1,100(tp) # 64 <_int_exc+0xc>

000004bc <inst_48>:
     4bc:	02000537          	lui	a0,0x2000
     4c0:	fdf56593          	ori	a1,a0,-33
     4c4:	06b22423          	sw	a1,104(tp) # 68 <offset>

000004c8 <inst_49>:
     4c8:	04000537          	lui	a0,0x4000
     4cc:	01056593          	ori	a1,a0,16
     4d0:	06b22623          	sw	a1,108(tp) # 6c <offset+0x4>

000004d4 <inst_50>:
     4d4:	08000537          	lui	a0,0x8000
     4d8:	55456593          	ori	a1,a0,1364
     4dc:	06b22823          	sw	a1,112(tp) # 70 <offset+0x8>

000004e0 <inst_51>:
     4e0:	40000537          	lui	a0,0x40000
     4e4:	ffa56593          	ori	a1,a0,-6
     4e8:	06b22a23          	sw	a1,116(tp) # 74 <offset+0xc>

000004ec <inst_52>:
     4ec:	ffe00513          	li	a0,-2
     4f0:	fbf56593          	ori	a1,a0,-65
     4f4:	06b22c23          	sw	a1,120(tp) # 78 <offset+0x10>

000004f8 <inst_53>:
     4f8:	ffd00513          	li	a0,-3
     4fc:	ff756593          	ori	a1,a0,-9
     500:	06b22e23          	sw	a1,124(tp) # 7c <offset+0x14>

00000504 <inst_54>:
     504:	ff700513          	li	a0,-9
     508:	80056593          	ori	a1,a0,-2048
     50c:	08b22023          	sw	a1,128(tp) # 80 <_start>

00000510 <inst_55>:
     510:	fef00513          	li	a0,-17
     514:	fd356593          	ori	a1,a0,-45
     518:	08b22223          	sw	a1,132(tp) # 84 <trap_vector>

0000051c <inst_56>:
     51c:	fbf00513          	li	a0,-65
     520:	aaa56593          	ori	a1,a0,-1366
     524:	08b22423          	sw	a1,136(tp) # 88 <trap_vector+0x4>

00000528 <inst_57>:
     528:	f7f00513          	li	a0,-129
     52c:	66556593          	ori	a1,a0,1637
     530:	08b22623          	sw	a1,140(tp) # 8c <trap_vector+0x8>

00000534 <inst_58>:
     534:	eff00513          	li	a0,-257
     538:	66656593          	ori	a1,a0,1638
     53c:	08b22823          	sw	a1,144(tp) # 90 <trap_vector+0xc>

00000540 <inst_59>:
     540:	bff00513          	li	a0,-1025
     544:	66656593          	ori	a1,a0,1638
     548:	08b22a23          	sw	a1,148(tp) # 94 <trap_vector+0x10>

0000054c <inst_60>:
     54c:	fffff537          	lui	a0,0xfffff
     550:	7ff50513          	addi	a0,a0,2047 # fffff7ff <_end+0xffffadfb>
     554:	7ff56593          	ori	a1,a0,2047
     558:	08b22c23          	sw	a1,152(tp) # 98 <trap_vector+0x14>

0000055c <inst_61>:
     55c:	fffff537          	lui	a0,0xfffff
     560:	fff50513          	addi	a0,a0,-1 # ffffefff <_end+0xffffa5fb>
     564:	00756593          	ori	a1,a0,7
     568:	08b22e23          	sw	a1,156(tp) # 9c <trap_vector+0x18>

0000056c <inst_62>:
     56c:	ffffe537          	lui	a0,0xffffe
     570:	fff50513          	addi	a0,a0,-1 # ffffdfff <_end+0xffff95fb>
     574:	fdf56593          	ori	a1,a0,-33
     578:	0ab22023          	sw	a1,160(tp) # a0 <trap_vector+0x1c>

0000057c <inst_63>:
     57c:	ffff8537          	lui	a0,0xffff8
     580:	fff50513          	addi	a0,a0,-1 # ffff7fff <_end+0xffff35fb>
     584:	02d56593          	ori	a1,a0,45
     588:	0ab22223          	sw	a1,164(tp) # a4 <trap_vector+0x20>

0000058c <inst_64>:
     58c:	ffff0537          	lui	a0,0xffff0
     590:	fff50513          	addi	a0,a0,-1 # fffeffff <_end+0xfffeb5fb>
     594:	33256593          	ori	a1,a0,818
     598:	0ab22423          	sw	a1,168(tp) # a8 <trap_vector+0x24>

0000059c <inst_65>:
     59c:	fffe0537          	lui	a0,0xfffe0
     5a0:	fff50513          	addi	a0,a0,-1 # fffdffff <_end+0xfffdb5fb>
     5a4:	ff656593          	ori	a1,a0,-10
     5a8:	0ab22623          	sw	a1,172(tp) # ac <trap_vector+0x28>

000005ac <inst_66>:
     5ac:	fff00537          	lui	a0,0xfff00
     5b0:	fff50513          	addi	a0,a0,-1 # ffefffff <_end+0xffefb5fb>
     5b4:	00656593          	ori	a1,a0,6
     5b8:	0ab22823          	sw	a1,176(tp) # b0 <trap_vector+0x2c>

000005bc <inst_67>:
     5bc:	ffe00537          	lui	a0,0xffe00
     5c0:	fff50513          	addi	a0,a0,-1 # ffdfffff <_end+0xffdfb5fb>
     5c4:	c0056593          	ori	a1,a0,-1024
     5c8:	0ab22a23          	sw	a1,180(tp) # b4 <trap_vector+0x30>

000005cc <inst_68>:
     5cc:	ffc00537          	lui	a0,0xffc00
     5d0:	fff50513          	addi	a0,a0,-1 # ffbfffff <_end+0xffbfb5fb>
     5d4:	fd456593          	ori	a1,a0,-44
     5d8:	0ab22c23          	sw	a1,184(tp) # b8 <handle_exception>

000005dc <inst_69>:
     5dc:	ff800537          	lui	a0,0xff800
     5e0:	fff50513          	addi	a0,a0,-1 # ff7fffff <_end+0xff7fb5fb>
     5e4:	ff656593          	ori	a1,a0,-10
     5e8:	0ab22e23          	sw	a1,188(tp) # bc <write_tohost>

000005ec <inst_70>:
     5ec:	ff000537          	lui	a0,0xff000
     5f0:	fff50513          	addi	a0,a0,-1 # feffffff <_end+0xfeffb5fb>
     5f4:	3ff56593          	ori	a1,a0,1023
     5f8:	0cb22023          	sw	a1,192(tp) # c0 <write_tohost+0x4>

000005fc <inst_71>:
     5fc:	fe000537          	lui	a0,0xfe000
     600:	fff50513          	addi	a0,a0,-1 # fdffffff <_end+0xfdffb5fb>
     604:	ff856593          	ori	a1,a0,-8
     608:	0cb22223          	sw	a1,196(tp) # c4 <write_tohost+0x8>

0000060c <inst_72>:
     60c:	fc000537          	lui	a0,0xfc000
     610:	fff50513          	addi	a0,a0,-1 # fbffffff <_end+0xfbffb5fb>
     614:	00456593          	ori	a1,a0,4
     618:	0cb22423          	sw	a1,200(tp) # c8 <reset_vector>

0000061c <inst_73>:
     61c:	f8000537          	lui	a0,0xf8000
     620:	fff50513          	addi	a0,a0,-1 # f7ffffff <_end+0xf7ffb5fb>
     624:	ffa56593          	ori	a1,a0,-6
     628:	0cb22623          	sw	a1,204(tp) # cc <reset_vector+0x4>

0000062c <inst_74>:
     62c:	f0000537          	lui	a0,0xf0000
     630:	fff50513          	addi	a0,a0,-1 # efffffff <_end+0xefffb5fb>
     634:	ff956593          	ori	a1,a0,-7
     638:	0cb22823          	sw	a1,208(tp) # d0 <reset_vector+0x8>

0000063c <inst_75>:
     63c:	e0000537          	lui	a0,0xe0000
     640:	fff50513          	addi	a0,a0,-1 # dfffffff <_end+0xdfffb5fb>
     644:	55456593          	ori	a1,a0,1364
     648:	0cb22a23          	sw	a1,212(tp) # d4 <reset_vector+0xc>

0000064c <inst_76>:
     64c:	55555537          	lui	a0,0x55555
     650:	55550513          	addi	a0,a0,1365 # 55555555 <_end+0x55550b51>
     654:	eff56593          	ori	a1,a0,-257
     658:	0cb22c23          	sw	a1,216(tp) # d8 <reset_vector+0x10>

0000065c <inst_77>:
     65c:	00300513          	li	a0,3
     660:	00356593          	ori	a1,a0,3
     664:	0cb22e23          	sw	a1,220(tp) # dc <reset_vector+0x14>

00000668 <inst_78>:
     668:	00300513          	li	a0,3
     66c:	55556593          	ori	a1,a0,1365
     670:	0eb22023          	sw	a1,224(tp) # e0 <reset_vector+0x18>

00000674 <inst_79>:
     674:	00300513          	li	a0,3
     678:	aaa56593          	ori	a1,a0,-1366
     67c:	0eb22223          	sw	a1,228(tp) # e4 <reset_vector+0x1c>

00000680 <inst_80>:
     680:	00300513          	li	a0,3
     684:	00556593          	ori	a1,a0,5
     688:	0eb22423          	sw	a1,232(tp) # e8 <reset_vector+0x20>

0000068c <inst_81>:
     68c:	00300513          	li	a0,3
     690:	33356593          	ori	a1,a0,819
     694:	0eb22623          	sw	a1,236(tp) # ec <reset_vector+0x24>

00000698 <inst_82>:
     698:	00300513          	li	a0,3
     69c:	66656593          	ori	a1,a0,1638
     6a0:	0eb22823          	sw	a1,240(tp) # f0 <reset_vector+0x28>

000006a4 <inst_83>:
     6a4:	00300513          	li	a0,3
     6a8:	fd356593          	ori	a1,a0,-45
     6ac:	0eb22a23          	sw	a1,244(tp) # f4 <reset_vector+0x2c>

000006b0 <inst_84>:
     6b0:	00300513          	li	a0,3
     6b4:	02d56593          	ori	a1,a0,45
     6b8:	0eb22c23          	sw	a1,248(tp) # f8 <reset_vector+0x30>

000006bc <inst_85>:
     6bc:	00300513          	li	a0,3
     6c0:	00256593          	ori	a1,a0,2
     6c4:	0eb22e23          	sw	a1,252(tp) # fc <reset_vector+0x34>

000006c8 <inst_86>:
     6c8:	00300513          	li	a0,3
     6cc:	55456593          	ori	a1,a0,1364
     6d0:	10b22023          	sw	a1,256(tp) # 100 <reset_vector+0x38>

000006d4 <inst_87>:
     6d4:	00300513          	li	a0,3
     6d8:	00056593          	ori	a1,a0,0
     6dc:	10b22223          	sw	a1,260(tp) # 104 <reset_vector+0x3c>

000006e0 <inst_88>:
     6e0:	00300513          	li	a0,3
     6e4:	00456593          	ori	a1,a0,4
     6e8:	10b22423          	sw	a1,264(tp) # 108 <reset_vector+0x40>

000006ec <inst_89>:
     6ec:	00300513          	li	a0,3
     6f0:	33256593          	ori	a1,a0,818
     6f4:	10b22623          	sw	a1,268(tp) # 10c <reset_vector+0x44>

000006f8 <inst_90>:
     6f8:	00300513          	li	a0,3
     6fc:	66556593          	ori	a1,a0,1637
     700:	10b22823          	sw	a1,272(tp) # 110 <reset_vector+0x48>

00000704 <inst_91>:
     704:	00300513          	li	a0,3
     708:	02c56593          	ori	a1,a0,44
     70c:	10b22a23          	sw	a1,276(tp) # 114 <reset_vector+0x4c>

00000710 <inst_92>:
     710:	00300513          	li	a0,3
     714:	55656593          	ori	a1,a0,1366
     718:	10b22c23          	sw	a1,280(tp) # 118 <reset_vector+0x50>

0000071c <inst_93>:
     71c:	00300513          	li	a0,3
     720:	aab56593          	ori	a1,a0,-1365
     724:	10b22e23          	sw	a1,284(tp) # 11c <reset_vector+0x54>

00000728 <inst_94>:
     728:	00300513          	li	a0,3
     72c:	00656593          	ori	a1,a0,6
     730:	12b22023          	sw	a1,288(tp) # 120 <reset_vector+0x58>

00000734 <inst_95>:
     734:	00300513          	li	a0,3
     738:	33456593          	ori	a1,a0,820
     73c:	12b22223          	sw	a1,292(tp) # 124 <reset_vector+0x5c>

00000740 <inst_96>:
     740:	00300513          	li	a0,3
     744:	66756593          	ori	a1,a0,1639
     748:	12b22423          	sw	a1,296(tp) # 128 <reset_vector+0x60>

0000074c <inst_97>:
     74c:	00300513          	li	a0,3
     750:	fd456593          	ori	a1,a0,-44
     754:	12b22623          	sw	a1,300(tp) # 12c <reset_vector+0x64>

00000758 <inst_98>:
     758:	00300513          	li	a0,3
     75c:	02e56593          	ori	a1,a0,46
     760:	12b22823          	sw	a1,304(tp) # 130 <reset_vector+0x68>

00000764 <inst_99>:
     764:	55555537          	lui	a0,0x55555
     768:	55550513          	addi	a0,a0,1365 # 55555555 <_end+0x55550b51>
     76c:	00356593          	ori	a1,a0,3
     770:	12b22a23          	sw	a1,308(tp) # 134 <reset_vector+0x6c>

00000774 <inst_100>:
     774:	55555537          	lui	a0,0x55555
     778:	55550513          	addi	a0,a0,1365 # 55555555 <_end+0x55550b51>
     77c:	55556593          	ori	a1,a0,1365
     780:	12b22c23          	sw	a1,312(tp) # 138 <reset_vector+0x70>

00000784 <inst_101>:
     784:	55555537          	lui	a0,0x55555
     788:	55550513          	addi	a0,a0,1365 # 55555555 <_end+0x55550b51>
     78c:	aaa56593          	ori	a1,a0,-1366
     790:	12b22e23          	sw	a1,316(tp) # 13c <begin_testcode>

00000794 <inst_102>:
     794:	55555537          	lui	a0,0x55555
     798:	55550513          	addi	a0,a0,1365 # 55555555 <_end+0x55550b51>
     79c:	00556593          	ori	a1,a0,5
     7a0:	14b22023          	sw	a1,320(tp) # 140 <rvtest_init>

000007a4 <inst_103>:
     7a4:	55555537          	lui	a0,0x55555
     7a8:	55550513          	addi	a0,a0,1365 # 55555555 <_end+0x55550b51>
     7ac:	33356593          	ori	a1,a0,819
     7b0:	14b22223          	sw	a1,324(tp) # 144 <rvtest_init+0x4>

000007b4 <inst_104>:
     7b4:	55555537          	lui	a0,0x55555
     7b8:	55550513          	addi	a0,a0,1365 # 55555555 <_end+0x55550b51>
     7bc:	66656593          	ori	a1,a0,1638
     7c0:	14b22423          	sw	a1,328(tp) # 148 <rvtest_init+0x8>

000007c4 <inst_105>:
     7c4:	55555537          	lui	a0,0x55555
     7c8:	55550513          	addi	a0,a0,1365 # 55555555 <_end+0x55550b51>
     7cc:	fd356593          	ori	a1,a0,-45
     7d0:	14b22623          	sw	a1,332(tp) # 14c <rvtest_init+0xc>

000007d4 <inst_106>:
     7d4:	55555537          	lui	a0,0x55555
     7d8:	55550513          	addi	a0,a0,1365 # 55555555 <_end+0x55550b51>
     7dc:	02d56593          	ori	a1,a0,45
     7e0:	14b22823          	sw	a1,336(tp) # 150 <rvtest_init+0x10>

000007e4 <inst_107>:
     7e4:	55555537          	lui	a0,0x55555
     7e8:	55550513          	addi	a0,a0,1365 # 55555555 <_end+0x55550b51>
     7ec:	00256593          	ori	a1,a0,2
     7f0:	14b22a23          	sw	a1,340(tp) # 154 <rvtest_init+0x14>

000007f4 <inst_108>:
     7f4:	55555537          	lui	a0,0x55555
     7f8:	55550513          	addi	a0,a0,1365 # 55555555 <_end+0x55550b51>
     7fc:	55456593          	ori	a1,a0,1364
     800:	14b22c23          	sw	a1,344(tp) # 158 <rvtest_init+0x18>

00000804 <inst_109>:
     804:	55555537          	lui	a0,0x55555
     808:	55550513          	addi	a0,a0,1365 # 55555555 <_end+0x55550b51>
     80c:	00056593          	ori	a1,a0,0
     810:	14b22e23          	sw	a1,348(tp) # 15c <rvtest_init+0x1c>

00000814 <inst_110>:
     814:	55555537          	lui	a0,0x55555
     818:	55550513          	addi	a0,a0,1365 # 55555555 <_end+0x55550b51>
     81c:	00456593          	ori	a1,a0,4
     820:	16b22023          	sw	a1,352(tp) # 160 <rvtest_init+0x20>

00000824 <inst_111>:
     824:	55555537          	lui	a0,0x55555
     828:	55550513          	addi	a0,a0,1365 # 55555555 <_end+0x55550b51>
     82c:	33256593          	ori	a1,a0,818
     830:	16b22223          	sw	a1,356(tp) # 164 <rvtest_init+0x24>

00000834 <inst_112>:
     834:	55555537          	lui	a0,0x55555
     838:	55550513          	addi	a0,a0,1365 # 55555555 <_end+0x55550b51>
     83c:	66556593          	ori	a1,a0,1637
     840:	16b22423          	sw	a1,360(tp) # 168 <rvtest_init+0x28>

00000844 <inst_113>:
     844:	55555537          	lui	a0,0x55555
     848:	55550513          	addi	a0,a0,1365 # 55555555 <_end+0x55550b51>
     84c:	02c56593          	ori	a1,a0,44
     850:	16b22623          	sw	a1,364(tp) # 16c <rvtest_init+0x2c>

00000854 <inst_114>:
     854:	55555537          	lui	a0,0x55555
     858:	55550513          	addi	a0,a0,1365 # 55555555 <_end+0x55550b51>
     85c:	55656593          	ori	a1,a0,1366
     860:	16b22823          	sw	a1,368(tp) # 170 <rvtest_init+0x30>

00000864 <inst_115>:
     864:	55555537          	lui	a0,0x55555
     868:	55550513          	addi	a0,a0,1365 # 55555555 <_end+0x55550b51>
     86c:	aab56593          	ori	a1,a0,-1365
     870:	16b22a23          	sw	a1,372(tp) # 174 <rvtest_init+0x34>

00000874 <inst_116>:
     874:	55555537          	lui	a0,0x55555
     878:	55550513          	addi	a0,a0,1365 # 55555555 <_end+0x55550b51>
     87c:	00656593          	ori	a1,a0,6
     880:	16b22c23          	sw	a1,376(tp) # 178 <rvtest_init+0x38>

00000884 <inst_117>:
     884:	55555537          	lui	a0,0x55555
     888:	55550513          	addi	a0,a0,1365 # 55555555 <_end+0x55550b51>
     88c:	33456593          	ori	a1,a0,820
     890:	16b22e23          	sw	a1,380(tp) # 17c <rvtest_init+0x3c>

00000894 <inst_118>:
     894:	55555537          	lui	a0,0x55555
     898:	55550513          	addi	a0,a0,1365 # 55555555 <_end+0x55550b51>
     89c:	66756593          	ori	a1,a0,1639
     8a0:	18b22023          	sw	a1,384(tp) # 180 <rvtest_init+0x40>

000008a4 <inst_119>:
     8a4:	55555537          	lui	a0,0x55555
     8a8:	55550513          	addi	a0,a0,1365 # 55555555 <_end+0x55550b51>
     8ac:	fd456593          	ori	a1,a0,-44
     8b0:	18b22223          	sw	a1,388(tp) # 184 <rvtest_init+0x44>

000008b4 <inst_120>:
     8b4:	55555537          	lui	a0,0x55555
     8b8:	55550513          	addi	a0,a0,1365 # 55555555 <_end+0x55550b51>
     8bc:	02e56593          	ori	a1,a0,46
     8c0:	18b22423          	sw	a1,392(tp) # 188 <rvtest_init+0x48>

000008c4 <inst_121>:
     8c4:	aaaab537          	lui	a0,0xaaaab
     8c8:	aaa50513          	addi	a0,a0,-1366 # aaaaaaaa <_end+0xaaaa60a6>
     8cc:	00356593          	ori	a1,a0,3
     8d0:	18b22623          	sw	a1,396(tp) # 18c <rvtest_init+0x4c>

000008d4 <inst_122>:
     8d4:	aaaab537          	lui	a0,0xaaaab
     8d8:	aaa50513          	addi	a0,a0,-1366 # aaaaaaaa <_end+0xaaaa60a6>
     8dc:	55556593          	ori	a1,a0,1365
     8e0:	18b22823          	sw	a1,400(tp) # 190 <rvtest_init+0x50>

000008e4 <inst_123>:
     8e4:	aaaab537          	lui	a0,0xaaaab
     8e8:	aaa50513          	addi	a0,a0,-1366 # aaaaaaaa <_end+0xaaaa60a6>
     8ec:	aaa56593          	ori	a1,a0,-1366
     8f0:	18b22a23          	sw	a1,404(tp) # 194 <rvtest_init+0x54>

000008f4 <inst_124>:
     8f4:	aaaab537          	lui	a0,0xaaaab
     8f8:	aaa50513          	addi	a0,a0,-1366 # aaaaaaaa <_end+0xaaaa60a6>
     8fc:	00556593          	ori	a1,a0,5
     900:	18b22c23          	sw	a1,408(tp) # 198 <rvtest_init+0x58>

00000904 <inst_125>:
     904:	aaaab537          	lui	a0,0xaaaab
     908:	aaa50513          	addi	a0,a0,-1366 # aaaaaaaa <_end+0xaaaa60a6>
     90c:	33356593          	ori	a1,a0,819
     910:	18b22e23          	sw	a1,412(tp) # 19c <rvtest_init+0x5c>

00000914 <inst_126>:
     914:	aaaab537          	lui	a0,0xaaaab
     918:	aaa50513          	addi	a0,a0,-1366 # aaaaaaaa <_end+0xaaaa60a6>
     91c:	66656593          	ori	a1,a0,1638
     920:	1ab22023          	sw	a1,416(tp) # 1a0 <rvtest_init+0x60>

00000924 <inst_127>:
     924:	aaaab537          	lui	a0,0xaaaab
     928:	aaa50513          	addi	a0,a0,-1366 # aaaaaaaa <_end+0xaaaa60a6>
     92c:	fd356593          	ori	a1,a0,-45
     930:	1ab22223          	sw	a1,420(tp) # 1a4 <rvtest_init+0x64>

00000934 <inst_128>:
     934:	aaaab537          	lui	a0,0xaaaab
     938:	aaa50513          	addi	a0,a0,-1366 # aaaaaaaa <_end+0xaaaa60a6>
     93c:	02d56593          	ori	a1,a0,45
     940:	1ab22423          	sw	a1,424(tp) # 1a8 <rvtest_init+0x68>

00000944 <inst_129>:
     944:	aaaab537          	lui	a0,0xaaaab
     948:	aaa50513          	addi	a0,a0,-1366 # aaaaaaaa <_end+0xaaaa60a6>
     94c:	00256593          	ori	a1,a0,2
     950:	1ab22623          	sw	a1,428(tp) # 1ac <rvtest_init+0x6c>

00000954 <inst_130>:
     954:	aaaab537          	lui	a0,0xaaaab
     958:	aaa50513          	addi	a0,a0,-1366 # aaaaaaaa <_end+0xaaaa60a6>
     95c:	55456593          	ori	a1,a0,1364
     960:	1ab22823          	sw	a1,432(tp) # 1b0 <rvtest_init+0x70>

00000964 <inst_131>:
     964:	aaaab537          	lui	a0,0xaaaab
     968:	aaa50513          	addi	a0,a0,-1366 # aaaaaaaa <_end+0xaaaa60a6>
     96c:	00056593          	ori	a1,a0,0
     970:	1ab22a23          	sw	a1,436(tp) # 1b4 <rvtest_init+0x74>

00000974 <inst_132>:
     974:	aaaab537          	lui	a0,0xaaaab
     978:	aaa50513          	addi	a0,a0,-1366 # aaaaaaaa <_end+0xaaaa60a6>
     97c:	00456593          	ori	a1,a0,4
     980:	1ab22c23          	sw	a1,440(tp) # 1b8 <rvtest_init+0x78>

00000984 <inst_133>:
     984:	aaaab537          	lui	a0,0xaaaab
     988:	aaa50513          	addi	a0,a0,-1366 # aaaaaaaa <_end+0xaaaa60a6>
     98c:	33256593          	ori	a1,a0,818
     990:	1ab22e23          	sw	a1,444(tp) # 1bc <rvtest_init+0x7c>

00000994 <inst_134>:
     994:	aaaab537          	lui	a0,0xaaaab
     998:	aaa50513          	addi	a0,a0,-1366 # aaaaaaaa <_end+0xaaaa60a6>
     99c:	66556593          	ori	a1,a0,1637
     9a0:	1cb22023          	sw	a1,448(tp) # 1c0 <rvtest_init+0x80>

000009a4 <inst_135>:
     9a4:	aaaab537          	lui	a0,0xaaaab
     9a8:	aaa50513          	addi	a0,a0,-1366 # aaaaaaaa <_end+0xaaaa60a6>
     9ac:	02c56593          	ori	a1,a0,44
     9b0:	1cb22223          	sw	a1,452(tp) # 1c4 <rvtest_init+0x84>

000009b4 <inst_136>:
     9b4:	aaaab537          	lui	a0,0xaaaab
     9b8:	aaa50513          	addi	a0,a0,-1366 # aaaaaaaa <_end+0xaaaa60a6>
     9bc:	55656593          	ori	a1,a0,1366
     9c0:	1cb22423          	sw	a1,456(tp) # 1c8 <rvtest_init+0x88>

000009c4 <inst_137>:
     9c4:	aaaab537          	lui	a0,0xaaaab
     9c8:	aaa50513          	addi	a0,a0,-1366 # aaaaaaaa <_end+0xaaaa60a6>
     9cc:	aab56593          	ori	a1,a0,-1365
     9d0:	1cb22623          	sw	a1,460(tp) # 1cc <rvtest_init+0x8c>

000009d4 <inst_138>:
     9d4:	aaaab537          	lui	a0,0xaaaab
     9d8:	aaa50513          	addi	a0,a0,-1366 # aaaaaaaa <_end+0xaaaa60a6>
     9dc:	00656593          	ori	a1,a0,6
     9e0:	1cb22823          	sw	a1,464(tp) # 1d0 <rvtest_init+0x90>

000009e4 <inst_139>:
     9e4:	aaaab537          	lui	a0,0xaaaab
     9e8:	aaa50513          	addi	a0,a0,-1366 # aaaaaaaa <_end+0xaaaa60a6>
     9ec:	33456593          	ori	a1,a0,820
     9f0:	1cb22a23          	sw	a1,468(tp) # 1d4 <rvtest_init+0x94>

000009f4 <inst_140>:
     9f4:	aaaab537          	lui	a0,0xaaaab
     9f8:	aaa50513          	addi	a0,a0,-1366 # aaaaaaaa <_end+0xaaaa60a6>
     9fc:	66756593          	ori	a1,a0,1639
     a00:	1cb22c23          	sw	a1,472(tp) # 1d8 <rvtest_init+0x98>

00000a04 <inst_141>:
     a04:	aaaab537          	lui	a0,0xaaaab
     a08:	aaa50513          	addi	a0,a0,-1366 # aaaaaaaa <_end+0xaaaa60a6>
     a0c:	fd456593          	ori	a1,a0,-44
     a10:	1cb22e23          	sw	a1,476(tp) # 1dc <rvtest_init+0x9c>

00000a14 <inst_142>:
     a14:	aaaab537          	lui	a0,0xaaaab
     a18:	aaa50513          	addi	a0,a0,-1366 # aaaaaaaa <_end+0xaaaa60a6>
     a1c:	02e56593          	ori	a1,a0,46
     a20:	1eb22023          	sw	a1,480(tp) # 1e0 <rvtest_init+0xa0>

00000a24 <inst_143>:
     a24:	00500513          	li	a0,5
     a28:	00356593          	ori	a1,a0,3
     a2c:	1eb22223          	sw	a1,484(tp) # 1e4 <rvtest_init+0xa4>

00000a30 <inst_144>:
     a30:	00500513          	li	a0,5
     a34:	55556593          	ori	a1,a0,1365
     a38:	1eb22423          	sw	a1,488(tp) # 1e8 <rvtest_init+0xa8>

00000a3c <inst_145>:
     a3c:	00500513          	li	a0,5
     a40:	aaa56593          	ori	a1,a0,-1366
     a44:	1eb22623          	sw	a1,492(tp) # 1ec <rvtest_init+0xac>

00000a48 <inst_146>:
     a48:	00500513          	li	a0,5
     a4c:	00556593          	ori	a1,a0,5
     a50:	1eb22823          	sw	a1,496(tp) # 1f0 <rvtest_init+0xb0>

00000a54 <inst_147>:
     a54:	00500513          	li	a0,5
     a58:	33356593          	ori	a1,a0,819
     a5c:	1eb22a23          	sw	a1,500(tp) # 1f4 <rvtest_init+0xb4>

00000a60 <inst_148>:
     a60:	00500513          	li	a0,5
     a64:	66656593          	ori	a1,a0,1638
     a68:	1eb22c23          	sw	a1,504(tp) # 1f8 <rvtest_init+0xb8>

00000a6c <inst_149>:
     a6c:	00500513          	li	a0,5
     a70:	fd356593          	ori	a1,a0,-45
     a74:	1eb22e23          	sw	a1,508(tp) # 1fc <rvtest_init+0xbc>

00000a78 <inst_150>:
     a78:	00500513          	li	a0,5
     a7c:	02d56593          	ori	a1,a0,45
     a80:	20b22023          	sw	a1,512(tp) # 200 <rvtest_init+0xc0>

00000a84 <inst_151>:
     a84:	00500513          	li	a0,5
     a88:	00256593          	ori	a1,a0,2
     a8c:	20b22223          	sw	a1,516(tp) # 204 <rvtest_init+0xc4>

00000a90 <inst_152>:
     a90:	00500513          	li	a0,5
     a94:	55456593          	ori	a1,a0,1364
     a98:	20b22423          	sw	a1,520(tp) # 208 <rvtest_init+0xc8>

00000a9c <inst_153>:
     a9c:	00500513          	li	a0,5
     aa0:	00056593          	ori	a1,a0,0
     aa4:	20b22623          	sw	a1,524(tp) # 20c <rvtest_init+0xcc>

00000aa8 <inst_154>:
     aa8:	00500513          	li	a0,5
     aac:	00456593          	ori	a1,a0,4
     ab0:	20b22823          	sw	a1,528(tp) # 210 <rvtest_init+0xd0>

00000ab4 <inst_155>:
     ab4:	00500513          	li	a0,5
     ab8:	33256593          	ori	a1,a0,818
     abc:	20b22a23          	sw	a1,532(tp) # 214 <rvtest_init+0xd4>

00000ac0 <inst_156>:
     ac0:	00500513          	li	a0,5
     ac4:	66556593          	ori	a1,a0,1637
     ac8:	20b22c23          	sw	a1,536(tp) # 218 <rvtest_init+0xd8>

00000acc <inst_157>:
     acc:	00500513          	li	a0,5
     ad0:	02c56593          	ori	a1,a0,44
     ad4:	20b22e23          	sw	a1,540(tp) # 21c <rvtest_init+0xdc>

00000ad8 <inst_158>:
     ad8:	00500513          	li	a0,5
     adc:	55656593          	ori	a1,a0,1366
     ae0:	22b22023          	sw	a1,544(tp) # 220 <rvtest_init+0xe0>

00000ae4 <inst_159>:
     ae4:	00500513          	li	a0,5
     ae8:	aab56593          	ori	a1,a0,-1365
     aec:	22b22223          	sw	a1,548(tp) # 224 <rvtest_init+0xe4>

00000af0 <inst_160>:
     af0:	00500513          	li	a0,5
     af4:	00656593          	ori	a1,a0,6
     af8:	22b22423          	sw	a1,552(tp) # 228 <rvtest_init+0xe8>

00000afc <inst_161>:
     afc:	00500513          	li	a0,5
     b00:	33456593          	ori	a1,a0,820
     b04:	22b22623          	sw	a1,556(tp) # 22c <rvtest_init+0xec>

00000b08 <inst_162>:
     b08:	00500513          	li	a0,5
     b0c:	66756593          	ori	a1,a0,1639
     b10:	22b22823          	sw	a1,560(tp) # 230 <rvtest_init+0xf0>

00000b14 <inst_163>:
     b14:	00500513          	li	a0,5
     b18:	fd456593          	ori	a1,a0,-44
     b1c:	22b22a23          	sw	a1,564(tp) # 234 <rvtest_init+0xf4>

00000b20 <inst_164>:
     b20:	00500513          	li	a0,5
     b24:	02e56593          	ori	a1,a0,46
     b28:	22b22c23          	sw	a1,568(tp) # 238 <rvtest_code_begin>

00000b2c <inst_165>:
     b2c:	33333537          	lui	a0,0x33333
     b30:	33350513          	addi	a0,a0,819 # 33333333 <_end+0x3332e92f>
     b34:	00356593          	ori	a1,a0,3
     b38:	22b22e23          	sw	a1,572(tp) # 23c <rvtest_code_begin+0x4>

00000b3c <inst_166>:
     b3c:	33333537          	lui	a0,0x33333
     b40:	33350513          	addi	a0,a0,819 # 33333333 <_end+0x3332e92f>
     b44:	55556593          	ori	a1,a0,1365
     b48:	24b22023          	sw	a1,576(tp) # 240 <inst_0>

00000b4c <inst_167>:
     b4c:	33333537          	lui	a0,0x33333
     b50:	33350513          	addi	a0,a0,819 # 33333333 <_end+0x3332e92f>
     b54:	aaa56593          	ori	a1,a0,-1366
     b58:	24b22223          	sw	a1,580(tp) # 244 <inst_0+0x4>

00000b5c <inst_168>:
     b5c:	33333537          	lui	a0,0x33333
     b60:	33350513          	addi	a0,a0,819 # 33333333 <_end+0x3332e92f>
     b64:	00556593          	ori	a1,a0,5
     b68:	24b22423          	sw	a1,584(tp) # 248 <inst_0+0x8>

00000b6c <inst_169>:
     b6c:	33333537          	lui	a0,0x33333
     b70:	33350513          	addi	a0,a0,819 # 33333333 <_end+0x3332e92f>
     b74:	33356593          	ori	a1,a0,819
     b78:	24b22623          	sw	a1,588(tp) # 24c <inst_1>

00000b7c <inst_170>:
     b7c:	33333537          	lui	a0,0x33333
     b80:	33350513          	addi	a0,a0,819 # 33333333 <_end+0x3332e92f>
     b84:	66656593          	ori	a1,a0,1638
     b88:	24b22823          	sw	a1,592(tp) # 250 <inst_1+0x4>

00000b8c <inst_171>:
     b8c:	33333537          	lui	a0,0x33333
     b90:	33350513          	addi	a0,a0,819 # 33333333 <_end+0x3332e92f>
     b94:	fd356593          	ori	a1,a0,-45
     b98:	24b22a23          	sw	a1,596(tp) # 254 <inst_1+0x8>

00000b9c <inst_172>:
     b9c:	33333537          	lui	a0,0x33333
     ba0:	33350513          	addi	a0,a0,819 # 33333333 <_end+0x3332e92f>
     ba4:	02d56593          	ori	a1,a0,45
     ba8:	24b22c23          	sw	a1,600(tp) # 258 <inst_2>

00000bac <inst_173>:
     bac:	33333537          	lui	a0,0x33333
     bb0:	33350513          	addi	a0,a0,819 # 33333333 <_end+0x3332e92f>
     bb4:	00256593          	ori	a1,a0,2
     bb8:	24b22e23          	sw	a1,604(tp) # 25c <inst_2+0x4>

00000bbc <inst_174>:
     bbc:	33333537          	lui	a0,0x33333
     bc0:	33350513          	addi	a0,a0,819 # 33333333 <_end+0x3332e92f>
     bc4:	55456593          	ori	a1,a0,1364
     bc8:	26b22023          	sw	a1,608(tp) # 260 <inst_2+0x8>

00000bcc <inst_175>:
     bcc:	33333537          	lui	a0,0x33333
     bd0:	33350513          	addi	a0,a0,819 # 33333333 <_end+0x3332e92f>
     bd4:	00056593          	ori	a1,a0,0
     bd8:	26b22223          	sw	a1,612(tp) # 264 <inst_2+0xc>

00000bdc <inst_176>:
     bdc:	33333537          	lui	a0,0x33333
     be0:	33350513          	addi	a0,a0,819 # 33333333 <_end+0x3332e92f>
     be4:	00456593          	ori	a1,a0,4
     be8:	26b22423          	sw	a1,616(tp) # 268 <inst_3>

00000bec <inst_177>:
     bec:	33333537          	lui	a0,0x33333
     bf0:	33350513          	addi	a0,a0,819 # 33333333 <_end+0x3332e92f>
     bf4:	33256593          	ori	a1,a0,818
     bf8:	26b22623          	sw	a1,620(tp) # 26c <inst_3+0x4>

00000bfc <inst_178>:
     bfc:	33333537          	lui	a0,0x33333
     c00:	33350513          	addi	a0,a0,819 # 33333333 <_end+0x3332e92f>
     c04:	66556593          	ori	a1,a0,1637
     c08:	26b22823          	sw	a1,624(tp) # 270 <inst_3+0x8>

00000c0c <inst_179>:
     c0c:	33333537          	lui	a0,0x33333
     c10:	33350513          	addi	a0,a0,819 # 33333333 <_end+0x3332e92f>
     c14:	02c56593          	ori	a1,a0,44
     c18:	26b22a23          	sw	a1,628(tp) # 274 <inst_3+0xc>

00000c1c <inst_180>:
     c1c:	33333537          	lui	a0,0x33333
     c20:	33350513          	addi	a0,a0,819 # 33333333 <_end+0x3332e92f>
     c24:	55656593          	ori	a1,a0,1366
     c28:	26b22c23          	sw	a1,632(tp) # 278 <inst_4>

00000c2c <inst_181>:
     c2c:	33333537          	lui	a0,0x33333
     c30:	33350513          	addi	a0,a0,819 # 33333333 <_end+0x3332e92f>
     c34:	aab56593          	ori	a1,a0,-1365
     c38:	26b22e23          	sw	a1,636(tp) # 27c <inst_4+0x4>

00000c3c <inst_182>:
     c3c:	33333537          	lui	a0,0x33333
     c40:	33350513          	addi	a0,a0,819 # 33333333 <_end+0x3332e92f>
     c44:	00656593          	ori	a1,a0,6
     c48:	28b22023          	sw	a1,640(tp) # 280 <inst_4+0x8>

00000c4c <inst_183>:
     c4c:	33333537          	lui	a0,0x33333
     c50:	33350513          	addi	a0,a0,819 # 33333333 <_end+0x3332e92f>
     c54:	33456593          	ori	a1,a0,820
     c58:	28b22223          	sw	a1,644(tp) # 284 <inst_5>

00000c5c <inst_184>:
     c5c:	33333537          	lui	a0,0x33333
     c60:	33350513          	addi	a0,a0,819 # 33333333 <_end+0x3332e92f>
     c64:	66756593          	ori	a1,a0,1639
     c68:	28b22423          	sw	a1,648(tp) # 288 <inst_5+0x4>

00000c6c <inst_185>:
     c6c:	33333537          	lui	a0,0x33333
     c70:	33350513          	addi	a0,a0,819 # 33333333 <_end+0x3332e92f>
     c74:	fd456593          	ori	a1,a0,-44
     c78:	28b22623          	sw	a1,652(tp) # 28c <inst_5+0x8>

00000c7c <inst_186>:
     c7c:	33333537          	lui	a0,0x33333
     c80:	33350513          	addi	a0,a0,819 # 33333333 <_end+0x3332e92f>
     c84:	02e56593          	ori	a1,a0,46
     c88:	28b22823          	sw	a1,656(tp) # 290 <inst_5+0xc>

00000c8c <inst_187>:
     c8c:	66666537          	lui	a0,0x66666
     c90:	66650513          	addi	a0,a0,1638 # 66666666 <_end+0x66661c62>
     c94:	00356593          	ori	a1,a0,3
     c98:	28b22a23          	sw	a1,660(tp) # 294 <inst_6>

00000c9c <inst_188>:
     c9c:	66666537          	lui	a0,0x66666
     ca0:	66650513          	addi	a0,a0,1638 # 66666666 <_end+0x66661c62>
     ca4:	55556593          	ori	a1,a0,1365
     ca8:	28b22c23          	sw	a1,664(tp) # 298 <inst_6+0x4>

00000cac <inst_189>:
     cac:	66666537          	lui	a0,0x66666
     cb0:	66650513          	addi	a0,a0,1638 # 66666666 <_end+0x66661c62>
     cb4:	aaa56593          	ori	a1,a0,-1366
     cb8:	28b22e23          	sw	a1,668(tp) # 29c <inst_6+0x8>

00000cbc <inst_190>:
     cbc:	66666537          	lui	a0,0x66666
     cc0:	66650513          	addi	a0,a0,1638 # 66666666 <_end+0x66661c62>
     cc4:	00556593          	ori	a1,a0,5
     cc8:	2ab22023          	sw	a1,672(tp) # 2a0 <inst_7>

00000ccc <inst_191>:
     ccc:	66666537          	lui	a0,0x66666
     cd0:	66650513          	addi	a0,a0,1638 # 66666666 <_end+0x66661c62>
     cd4:	33356593          	ori	a1,a0,819
     cd8:	2ab22223          	sw	a1,676(tp) # 2a4 <inst_7+0x4>

00000cdc <inst_192>:
     cdc:	66666537          	lui	a0,0x66666
     ce0:	66650513          	addi	a0,a0,1638 # 66666666 <_end+0x66661c62>
     ce4:	66656593          	ori	a1,a0,1638
     ce8:	2ab22423          	sw	a1,680(tp) # 2a8 <inst_7+0x8>

00000cec <inst_193>:
     cec:	66666537          	lui	a0,0x66666
     cf0:	66650513          	addi	a0,a0,1638 # 66666666 <_end+0x66661c62>
     cf4:	fd356593          	ori	a1,a0,-45
     cf8:	2ab22623          	sw	a1,684(tp) # 2ac <inst_8>

00000cfc <inst_194>:
     cfc:	66666537          	lui	a0,0x66666
     d00:	66650513          	addi	a0,a0,1638 # 66666666 <_end+0x66661c62>
     d04:	02d56593          	ori	a1,a0,45
     d08:	2ab22823          	sw	a1,688(tp) # 2b0 <inst_8+0x4>

00000d0c <inst_195>:
     d0c:	66666537          	lui	a0,0x66666
     d10:	66650513          	addi	a0,a0,1638 # 66666666 <_end+0x66661c62>
     d14:	00256593          	ori	a1,a0,2
     d18:	2ab22a23          	sw	a1,692(tp) # 2b4 <inst_8+0x8>

00000d1c <inst_196>:
     d1c:	66666537          	lui	a0,0x66666
     d20:	66650513          	addi	a0,a0,1638 # 66666666 <_end+0x66661c62>
     d24:	55456593          	ori	a1,a0,1364
     d28:	2ab22c23          	sw	a1,696(tp) # 2b8 <inst_9>

00000d2c <inst_197>:
     d2c:	66666537          	lui	a0,0x66666
     d30:	66650513          	addi	a0,a0,1638 # 66666666 <_end+0x66661c62>
     d34:	00056593          	ori	a1,a0,0
     d38:	2ab22e23          	sw	a1,700(tp) # 2bc <inst_9+0x4>

00000d3c <inst_198>:
     d3c:	66666537          	lui	a0,0x66666
     d40:	66650513          	addi	a0,a0,1638 # 66666666 <_end+0x66661c62>
     d44:	00456593          	ori	a1,a0,4
     d48:	2cb22023          	sw	a1,704(tp) # 2c0 <inst_9+0x8>

00000d4c <inst_199>:
     d4c:	66666537          	lui	a0,0x66666
     d50:	66650513          	addi	a0,a0,1638 # 66666666 <_end+0x66661c62>
     d54:	33256593          	ori	a1,a0,818
     d58:	2cb22223          	sw	a1,708(tp) # 2c4 <inst_10>

00000d5c <inst_200>:
     d5c:	66666537          	lui	a0,0x66666
     d60:	66650513          	addi	a0,a0,1638 # 66666666 <_end+0x66661c62>
     d64:	66556593          	ori	a1,a0,1637
     d68:	2cb22423          	sw	a1,712(tp) # 2c8 <inst_10+0x4>

00000d6c <inst_201>:
     d6c:	66666537          	lui	a0,0x66666
     d70:	66650513          	addi	a0,a0,1638 # 66666666 <_end+0x66661c62>
     d74:	02c56593          	ori	a1,a0,44
     d78:	2cb22623          	sw	a1,716(tp) # 2cc <inst_10+0x8>

00000d7c <inst_202>:
     d7c:	66666537          	lui	a0,0x66666
     d80:	66650513          	addi	a0,a0,1638 # 66666666 <_end+0x66661c62>
     d84:	55656593          	ori	a1,a0,1366
     d88:	2cb22823          	sw	a1,720(tp) # 2d0 <inst_11>

00000d8c <inst_203>:
     d8c:	66666537          	lui	a0,0x66666
     d90:	66650513          	addi	a0,a0,1638 # 66666666 <_end+0x66661c62>
     d94:	aab56593          	ori	a1,a0,-1365
     d98:	2cb22a23          	sw	a1,724(tp) # 2d4 <inst_11+0x4>

00000d9c <inst_204>:
     d9c:	66666537          	lui	a0,0x66666
     da0:	66650513          	addi	a0,a0,1638 # 66666666 <_end+0x66661c62>
     da4:	00656593          	ori	a1,a0,6
     da8:	2cb22c23          	sw	a1,728(tp) # 2d8 <inst_11+0x8>

00000dac <inst_205>:
     dac:	66666537          	lui	a0,0x66666
     db0:	66650513          	addi	a0,a0,1638 # 66666666 <_end+0x66661c62>
     db4:	33456593          	ori	a1,a0,820
     db8:	2cb22e23          	sw	a1,732(tp) # 2dc <inst_12>

00000dbc <inst_206>:
     dbc:	66666537          	lui	a0,0x66666
     dc0:	66650513          	addi	a0,a0,1638 # 66666666 <_end+0x66661c62>
     dc4:	66756593          	ori	a1,a0,1639
     dc8:	2eb22023          	sw	a1,736(tp) # 2e0 <inst_12+0x4>

00000dcc <inst_207>:
     dcc:	66666537          	lui	a0,0x66666
     dd0:	66650513          	addi	a0,a0,1638 # 66666666 <_end+0x66661c62>
     dd4:	fd456593          	ori	a1,a0,-44
     dd8:	2eb22223          	sw	a1,740(tp) # 2e4 <inst_12+0x8>

00000ddc <inst_208>:
     ddc:	66666537          	lui	a0,0x66666
     de0:	66650513          	addi	a0,a0,1638 # 66666666 <_end+0x66661c62>
     de4:	02e56593          	ori	a1,a0,46
     de8:	2eb22423          	sw	a1,744(tp) # 2e8 <inst_13>

00000dec <inst_209>:
     dec:	ffff5537          	lui	a0,0xffff5
     df0:	afc50513          	addi	a0,a0,-1284 # ffff4afc <_end+0xffff00f8>
     df4:	00356593          	ori	a1,a0,3
     df8:	2eb22623          	sw	a1,748(tp) # 2ec <inst_13+0x4>

00000dfc <inst_210>:
     dfc:	ffff5537          	lui	a0,0xffff5
     e00:	afc50513          	addi	a0,a0,-1284 # ffff4afc <_end+0xffff00f8>
     e04:	55556593          	ori	a1,a0,1365
     e08:	2eb22823          	sw	a1,752(tp) # 2f0 <inst_13+0x8>

00000e0c <inst_211>:
     e0c:	ffff5537          	lui	a0,0xffff5
     e10:	afc50513          	addi	a0,a0,-1284 # ffff4afc <_end+0xffff00f8>
     e14:	00556593          	ori	a1,a0,5
     e18:	2eb22a23          	sw	a1,756(tp) # 2f4 <inst_13+0xc>

00000e1c <inst_212>:
     e1c:	ffff5537          	lui	a0,0xffff5
     e20:	afc50513          	addi	a0,a0,-1284 # ffff4afc <_end+0xffff00f8>
     e24:	33356593          	ori	a1,a0,819
     e28:	2eb22c23          	sw	a1,760(tp) # 2f8 <inst_14>

00000e2c <inst_213>:
     e2c:	ffff5537          	lui	a0,0xffff5
     e30:	afc50513          	addi	a0,a0,-1284 # ffff4afc <_end+0xffff00f8>
     e34:	66656593          	ori	a1,a0,1638
     e38:	2eb22e23          	sw	a1,764(tp) # 2fc <inst_14+0x4>

00000e3c <inst_214>:
     e3c:	ffff5537          	lui	a0,0xffff5
     e40:	afc50513          	addi	a0,a0,-1284 # ffff4afc <_end+0xffff00f8>
     e44:	fd356593          	ori	a1,a0,-45
     e48:	30b22023          	sw	a1,768(tp) # 300 <inst_14+0x8>

00000e4c <inst_215>:
     e4c:	ffff5537          	lui	a0,0xffff5
     e50:	afc50513          	addi	a0,a0,-1284 # ffff4afc <_end+0xffff00f8>
     e54:	02d56593          	ori	a1,a0,45
     e58:	30b22223          	sw	a1,772(tp) # 304 <inst_14+0xc>

00000e5c <inst_216>:
     e5c:	ffff5537          	lui	a0,0xffff5
     e60:	afc50513          	addi	a0,a0,-1284 # ffff4afc <_end+0xffff00f8>
     e64:	00256593          	ori	a1,a0,2
     e68:	30b22423          	sw	a1,776(tp) # 308 <inst_15>

00000e6c <inst_217>:
     e6c:	ffff5537          	lui	a0,0xffff5
     e70:	afc50513          	addi	a0,a0,-1284 # ffff4afc <_end+0xffff00f8>
     e74:	55456593          	ori	a1,a0,1364
     e78:	30b22623          	sw	a1,780(tp) # 30c <inst_15+0x4>

00000e7c <inst_218>:
     e7c:	ffff5537          	lui	a0,0xffff5
     e80:	afc50513          	addi	a0,a0,-1284 # ffff4afc <_end+0xffff00f8>
     e84:	00056593          	ori	a1,a0,0
     e88:	30b22823          	sw	a1,784(tp) # 310 <inst_15+0x8>

00000e8c <inst_219>:
     e8c:	ffff5537          	lui	a0,0xffff5
     e90:	afc50513          	addi	a0,a0,-1284 # ffff4afc <_end+0xffff00f8>
     e94:	00456593          	ori	a1,a0,4
     e98:	30b22a23          	sw	a1,788(tp) # 314 <inst_16>

00000e9c <inst_220>:
     e9c:	ffff5537          	lui	a0,0xffff5
     ea0:	afc50513          	addi	a0,a0,-1284 # ffff4afc <_end+0xffff00f8>
     ea4:	33256593          	ori	a1,a0,818
     ea8:	30b22c23          	sw	a1,792(tp) # 318 <inst_16+0x4>

00000eac <inst_221>:
     eac:	ffff5537          	lui	a0,0xffff5
     eb0:	afc50513          	addi	a0,a0,-1284 # ffff4afc <_end+0xffff00f8>
     eb4:	66556593          	ori	a1,a0,1637
     eb8:	30b22e23          	sw	a1,796(tp) # 31c <inst_16+0x8>

00000ebc <inst_222>:
     ebc:	ffff5537          	lui	a0,0xffff5
     ec0:	afc50513          	addi	a0,a0,-1284 # ffff4afc <_end+0xffff00f8>
     ec4:	02c56593          	ori	a1,a0,44
     ec8:	32b22023          	sw	a1,800(tp) # 320 <inst_16+0xc>

00000ecc <inst_223>:
     ecc:	ffff5537          	lui	a0,0xffff5
     ed0:	afc50513          	addi	a0,a0,-1284 # ffff4afc <_end+0xffff00f8>
     ed4:	55656593          	ori	a1,a0,1366
     ed8:	32b22223          	sw	a1,804(tp) # 324 <inst_17>

00000edc <inst_224>:
     edc:	ffff5537          	lui	a0,0xffff5
     ee0:	afc50513          	addi	a0,a0,-1284 # ffff4afc <_end+0xffff00f8>
     ee4:	aab56593          	ori	a1,a0,-1365
     ee8:	32b22423          	sw	a1,808(tp) # 328 <inst_17+0x4>

00000eec <inst_225>:
     eec:	ffff5537          	lui	a0,0xffff5
     ef0:	afc50513          	addi	a0,a0,-1284 # ffff4afc <_end+0xffff00f8>
     ef4:	00656593          	ori	a1,a0,6
     ef8:	32b22623          	sw	a1,812(tp) # 32c <inst_17+0x8>

00000efc <inst_226>:
     efc:	ffff5537          	lui	a0,0xffff5
     f00:	afc50513          	addi	a0,a0,-1284 # ffff4afc <_end+0xffff00f8>
     f04:	33456593          	ori	a1,a0,820
     f08:	32b22823          	sw	a1,816(tp) # 330 <inst_17+0xc>

00000f0c <inst_227>:
     f0c:	ffff5537          	lui	a0,0xffff5
     f10:	afc50513          	addi	a0,a0,-1284 # ffff4afc <_end+0xffff00f8>
     f14:	66756593          	ori	a1,a0,1639
     f18:	32b22a23          	sw	a1,820(tp) # 334 <inst_18>

00000f1c <inst_228>:
     f1c:	ffff5537          	lui	a0,0xffff5
     f20:	afc50513          	addi	a0,a0,-1284 # ffff4afc <_end+0xffff00f8>
     f24:	fd456593          	ori	a1,a0,-44
     f28:	32b22c23          	sw	a1,824(tp) # 338 <inst_18+0x4>

00000f2c <inst_229>:
     f2c:	ffff5537          	lui	a0,0xffff5
     f30:	afc50513          	addi	a0,a0,-1284 # ffff4afc <_end+0xffff00f8>
     f34:	02e56593          	ori	a1,a0,46
     f38:	32b22e23          	sw	a1,828(tp) # 33c <inst_18+0x8>

00000f3c <inst_230>:
     f3c:	0000b537          	lui	a0,0xb
     f40:	50450513          	addi	a0,a0,1284 # b504 <_end+0x6b00>
     f44:	00356593          	ori	a1,a0,3
     f48:	34b22023          	sw	a1,832(tp) # 340 <inst_19>

00000f4c <inst_231>:
     f4c:	0000b537          	lui	a0,0xb
     f50:	50450513          	addi	a0,a0,1284 # b504 <_end+0x6b00>
     f54:	55556593          	ori	a1,a0,1365
     f58:	34b22223          	sw	a1,836(tp) # 344 <inst_19+0x4>

00000f5c <inst_232>:
     f5c:	0000b537          	lui	a0,0xb
     f60:	50450513          	addi	a0,a0,1284 # b504 <_end+0x6b00>
     f64:	aaa56593          	ori	a1,a0,-1366
     f68:	34b22423          	sw	a1,840(tp) # 348 <inst_19+0x8>

00000f6c <inst_233>:
     f6c:	0000b537          	lui	a0,0xb
     f70:	50450513          	addi	a0,a0,1284 # b504 <_end+0x6b00>
     f74:	00556593          	ori	a1,a0,5
     f78:	34b22623          	sw	a1,844(tp) # 34c <inst_19+0xc>

00000f7c <inst_234>:
     f7c:	0000b537          	lui	a0,0xb
     f80:	50450513          	addi	a0,a0,1284 # b504 <_end+0x6b00>
     f84:	33356593          	ori	a1,a0,819
     f88:	34b22823          	sw	a1,848(tp) # 350 <inst_20>

00000f8c <inst_235>:
     f8c:	0000b537          	lui	a0,0xb
     f90:	50450513          	addi	a0,a0,1284 # b504 <_end+0x6b00>
     f94:	66656593          	ori	a1,a0,1638
     f98:	34b22a23          	sw	a1,852(tp) # 354 <inst_20+0x4>

00000f9c <inst_236>:
     f9c:	0000b537          	lui	a0,0xb
     fa0:	50450513          	addi	a0,a0,1284 # b504 <_end+0x6b00>
     fa4:	fd356593          	ori	a1,a0,-45
     fa8:	34b22c23          	sw	a1,856(tp) # 358 <inst_20+0x8>

00000fac <inst_237>:
     fac:	0000b537          	lui	a0,0xb
     fb0:	50450513          	addi	a0,a0,1284 # b504 <_end+0x6b00>
     fb4:	02d56593          	ori	a1,a0,45
     fb8:	34b22e23          	sw	a1,860(tp) # 35c <inst_21>

00000fbc <inst_238>:
     fbc:	0000b537          	lui	a0,0xb
     fc0:	50450513          	addi	a0,a0,1284 # b504 <_end+0x6b00>
     fc4:	00256593          	ori	a1,a0,2
     fc8:	36b22023          	sw	a1,864(tp) # 360 <inst_21+0x4>

00000fcc <inst_239>:
     fcc:	0000b537          	lui	a0,0xb
     fd0:	50450513          	addi	a0,a0,1284 # b504 <_end+0x6b00>
     fd4:	55456593          	ori	a1,a0,1364
     fd8:	36b22223          	sw	a1,868(tp) # 364 <inst_21+0x8>

00000fdc <inst_240>:
     fdc:	0000b537          	lui	a0,0xb
     fe0:	50450513          	addi	a0,a0,1284 # b504 <_end+0x6b00>
     fe4:	00056593          	ori	a1,a0,0
     fe8:	36b22423          	sw	a1,872(tp) # 368 <inst_21+0xc>

00000fec <inst_241>:
     fec:	0000b537          	lui	a0,0xb
     ff0:	50450513          	addi	a0,a0,1284 # b504 <_end+0x6b00>
     ff4:	00456593          	ori	a1,a0,4
     ff8:	36b22623          	sw	a1,876(tp) # 36c <inst_21+0x10>

00000ffc <inst_242>:
     ffc:	0000b537          	lui	a0,0xb
    1000:	50450513          	addi	a0,a0,1284 # b504 <_end+0x6b00>
    1004:	33256593          	ori	a1,a0,818
    1008:	36b22823          	sw	a1,880(tp) # 370 <inst_21+0x14>

0000100c <inst_243>:
    100c:	0000b537          	lui	a0,0xb
    1010:	50450513          	addi	a0,a0,1284 # b504 <_end+0x6b00>
    1014:	66556593          	ori	a1,a0,1637
    1018:	36b22a23          	sw	a1,884(tp) # 374 <inst_22>

0000101c <inst_244>:
    101c:	0000b537          	lui	a0,0xb
    1020:	50450513          	addi	a0,a0,1284 # b504 <_end+0x6b00>
    1024:	02c56593          	ori	a1,a0,44
    1028:	36b22c23          	sw	a1,888(tp) # 378 <inst_22+0x4>

0000102c <inst_245>:
    102c:	0000b537          	lui	a0,0xb
    1030:	50450513          	addi	a0,a0,1284 # b504 <_end+0x6b00>
    1034:	55656593          	ori	a1,a0,1366
    1038:	36b22e23          	sw	a1,892(tp) # 37c <inst_22+0x8>

0000103c <inst_246>:
    103c:	0000b537          	lui	a0,0xb
    1040:	50450513          	addi	a0,a0,1284 # b504 <_end+0x6b00>
    1044:	aab56593          	ori	a1,a0,-1365
    1048:	38b22023          	sw	a1,896(tp) # 380 <inst_23>

0000104c <inst_247>:
    104c:	0000b537          	lui	a0,0xb
    1050:	50450513          	addi	a0,a0,1284 # b504 <_end+0x6b00>
    1054:	00656593          	ori	a1,a0,6
    1058:	38b22223          	sw	a1,900(tp) # 384 <inst_23+0x4>

0000105c <inst_248>:
    105c:	0000b537          	lui	a0,0xb
    1060:	50450513          	addi	a0,a0,1284 # b504 <_end+0x6b00>
    1064:	33456593          	ori	a1,a0,820
    1068:	38b22423          	sw	a1,904(tp) # 388 <inst_23+0x8>

0000106c <inst_249>:
    106c:	0000b537          	lui	a0,0xb
    1070:	50450513          	addi	a0,a0,1284 # b504 <_end+0x6b00>
    1074:	66756593          	ori	a1,a0,1639
    1078:	38b22623          	sw	a1,908(tp) # 38c <inst_24>

0000107c <inst_250>:
    107c:	0000b537          	lui	a0,0xb
    1080:	50450513          	addi	a0,a0,1284 # b504 <_end+0x6b00>
    1084:	fd456593          	ori	a1,a0,-44
    1088:	38b22823          	sw	a1,912(tp) # 390 <inst_24+0x4>

0000108c <inst_251>:
    108c:	0000b537          	lui	a0,0xb
    1090:	50450513          	addi	a0,a0,1284 # b504 <_end+0x6b00>
    1094:	02e56593          	ori	a1,a0,46
    1098:	38b22a23          	sw	a1,916(tp) # 394 <inst_24+0x8>

0000109c <inst_252>:
    109c:	00200513          	li	a0,2
    10a0:	00356593          	ori	a1,a0,3
    10a4:	38b22c23          	sw	a1,920(tp) # 398 <inst_24+0xc>

000010a8 <inst_253>:
    10a8:	00200513          	li	a0,2
    10ac:	55556593          	ori	a1,a0,1365
    10b0:	38b22e23          	sw	a1,924(tp) # 39c <inst_25>

000010b4 <inst_254>:
    10b4:	00200513          	li	a0,2
    10b8:	aaa56593          	ori	a1,a0,-1366
    10bc:	3ab22023          	sw	a1,928(tp) # 3a0 <inst_25+0x4>

000010c0 <inst_255>:
    10c0:	00200513          	li	a0,2
    10c4:	00556593          	ori	a1,a0,5
    10c8:	3ab22223          	sw	a1,932(tp) # 3a4 <inst_25+0x8>

000010cc <inst_256>:
    10cc:	00200513          	li	a0,2
    10d0:	33356593          	ori	a1,a0,819
    10d4:	3ab22423          	sw	a1,936(tp) # 3a8 <inst_25+0xc>

000010d8 <inst_257>:
    10d8:	00200513          	li	a0,2
    10dc:	66656593          	ori	a1,a0,1638
    10e0:	3ab22623          	sw	a1,940(tp) # 3ac <inst_26>

000010e4 <inst_258>:
    10e4:	00200513          	li	a0,2
    10e8:	fd356593          	ori	a1,a0,-45
    10ec:	3ab22823          	sw	a1,944(tp) # 3b0 <inst_26+0x4>

000010f0 <inst_259>:
    10f0:	00200513          	li	a0,2
    10f4:	02d56593          	ori	a1,a0,45
    10f8:	3ab22a23          	sw	a1,948(tp) # 3b4 <inst_26+0x8>

000010fc <inst_260>:
    10fc:	00200513          	li	a0,2
    1100:	00256593          	ori	a1,a0,2
    1104:	3ab22c23          	sw	a1,952(tp) # 3b8 <inst_26+0xc>

00001108 <inst_261>:
    1108:	00200513          	li	a0,2
    110c:	55456593          	ori	a1,a0,1364
    1110:	3ab22e23          	sw	a1,956(tp) # 3bc <inst_27>

00001114 <inst_262>:
    1114:	00200513          	li	a0,2
    1118:	00056593          	ori	a1,a0,0
    111c:	3cb22023          	sw	a1,960(tp) # 3c0 <inst_27+0x4>

00001120 <inst_263>:
    1120:	00200513          	li	a0,2
    1124:	00456593          	ori	a1,a0,4
    1128:	3cb22223          	sw	a1,964(tp) # 3c4 <inst_27+0x8>

0000112c <inst_264>:
    112c:	00200513          	li	a0,2
    1130:	33256593          	ori	a1,a0,818
    1134:	3cb22423          	sw	a1,968(tp) # 3c8 <inst_28>

00001138 <inst_265>:
    1138:	00200513          	li	a0,2
    113c:	66556593          	ori	a1,a0,1637
    1140:	3cb22623          	sw	a1,972(tp) # 3cc <inst_28+0x4>

00001144 <inst_266>:
    1144:	00200513          	li	a0,2
    1148:	02c56593          	ori	a1,a0,44
    114c:	3cb22823          	sw	a1,976(tp) # 3d0 <inst_28+0x8>

00001150 <inst_267>:
    1150:	00200513          	li	a0,2
    1154:	55656593          	ori	a1,a0,1366
    1158:	3cb22a23          	sw	a1,980(tp) # 3d4 <inst_29>

0000115c <inst_268>:
    115c:	00200513          	li	a0,2
    1160:	aab56593          	ori	a1,a0,-1365
    1164:	3cb22c23          	sw	a1,984(tp) # 3d8 <inst_29+0x4>

00001168 <inst_269>:
    1168:	00200513          	li	a0,2
    116c:	00656593          	ori	a1,a0,6
    1170:	3cb22e23          	sw	a1,988(tp) # 3dc <inst_29+0x8>

00001174 <inst_270>:
    1174:	00200513          	li	a0,2
    1178:	33456593          	ori	a1,a0,820
    117c:	3eb22023          	sw	a1,992(tp) # 3e0 <inst_29+0xc>

00001180 <inst_271>:
    1180:	00200513          	li	a0,2
    1184:	66756593          	ori	a1,a0,1639
    1188:	3eb22223          	sw	a1,996(tp) # 3e4 <inst_30>

0000118c <inst_272>:
    118c:	00200513          	li	a0,2
    1190:	fd456593          	ori	a1,a0,-44
    1194:	3eb22423          	sw	a1,1000(tp) # 3e8 <inst_30+0x4>

00001198 <inst_273>:
    1198:	00200513          	li	a0,2
    119c:	02e56593          	ori	a1,a0,46
    11a0:	3eb22623          	sw	a1,1004(tp) # 3ec <inst_30+0x8>

000011a4 <inst_274>:
    11a4:	55555537          	lui	a0,0x55555
    11a8:	55450513          	addi	a0,a0,1364 # 55555554 <_end+0x55550b50>
    11ac:	00356593          	ori	a1,a0,3
    11b0:	3eb22823          	sw	a1,1008(tp) # 3f0 <inst_31>

000011b4 <inst_275>:
    11b4:	55555537          	lui	a0,0x55555
    11b8:	55450513          	addi	a0,a0,1364 # 55555554 <_end+0x55550b50>
    11bc:	55556593          	ori	a1,a0,1365
    11c0:	3eb22a23          	sw	a1,1012(tp) # 3f4 <inst_31+0x4>

000011c4 <inst_276>:
    11c4:	55555537          	lui	a0,0x55555
    11c8:	55450513          	addi	a0,a0,1364 # 55555554 <_end+0x55550b50>
    11cc:	aaa56593          	ori	a1,a0,-1366
    11d0:	3eb22c23          	sw	a1,1016(tp) # 3f8 <inst_31+0x8>

000011d4 <inst_277>:
    11d4:	55555537          	lui	a0,0x55555
    11d8:	55450513          	addi	a0,a0,1364 # 55555554 <_end+0x55550b50>
    11dc:	00556593          	ori	a1,a0,5
    11e0:	3eb22e23          	sw	a1,1020(tp) # 3fc <inst_32>

000011e4 <inst_278>:
    11e4:	55555537          	lui	a0,0x55555
    11e8:	55450513          	addi	a0,a0,1364 # 55555554 <_end+0x55550b50>
    11ec:	33356593          	ori	a1,a0,819
    11f0:	40b22023          	sw	a1,1024(tp) # 400 <inst_32+0x4>

000011f4 <inst_279>:
    11f4:	55555537          	lui	a0,0x55555
    11f8:	55450513          	addi	a0,a0,1364 # 55555554 <_end+0x55550b50>
    11fc:	66656593          	ori	a1,a0,1638
    1200:	40b22223          	sw	a1,1028(tp) # 404 <inst_32+0x8>

00001204 <inst_280>:
    1204:	55555537          	lui	a0,0x55555
    1208:	55450513          	addi	a0,a0,1364 # 55555554 <_end+0x55550b50>
    120c:	fd356593          	ori	a1,a0,-45
    1210:	40b22423          	sw	a1,1032(tp) # 408 <inst_33>

00001214 <inst_281>:
    1214:	55555537          	lui	a0,0x55555
    1218:	55450513          	addi	a0,a0,1364 # 55555554 <_end+0x55550b50>
    121c:	02d56593          	ori	a1,a0,45
    1220:	40b22623          	sw	a1,1036(tp) # 40c <inst_33+0x4>

00001224 <inst_282>:
    1224:	55555537          	lui	a0,0x55555
    1228:	55450513          	addi	a0,a0,1364 # 55555554 <_end+0x55550b50>
    122c:	00256593          	ori	a1,a0,2
    1230:	40b22823          	sw	a1,1040(tp) # 410 <inst_33+0x8>

00001234 <inst_283>:
    1234:	55555537          	lui	a0,0x55555
    1238:	55450513          	addi	a0,a0,1364 # 55555554 <_end+0x55550b50>
    123c:	55456593          	ori	a1,a0,1364
    1240:	40b22a23          	sw	a1,1044(tp) # 414 <inst_34>

00001244 <inst_284>:
    1244:	55555537          	lui	a0,0x55555
    1248:	55450513          	addi	a0,a0,1364 # 55555554 <_end+0x55550b50>
    124c:	00056593          	ori	a1,a0,0
    1250:	40b22c23          	sw	a1,1048(tp) # 418 <inst_34+0x4>

00001254 <inst_285>:
    1254:	55555537          	lui	a0,0x55555
    1258:	55450513          	addi	a0,a0,1364 # 55555554 <_end+0x55550b50>
    125c:	00456593          	ori	a1,a0,4
    1260:	40b22e23          	sw	a1,1052(tp) # 41c <inst_34+0x8>

00001264 <inst_286>:
    1264:	55555537          	lui	a0,0x55555
    1268:	55450513          	addi	a0,a0,1364 # 55555554 <_end+0x55550b50>
    126c:	33256593          	ori	a1,a0,818
    1270:	42b22023          	sw	a1,1056(tp) # 420 <inst_35>

00001274 <inst_287>:
    1274:	55555537          	lui	a0,0x55555
    1278:	55450513          	addi	a0,a0,1364 # 55555554 <_end+0x55550b50>
    127c:	66556593          	ori	a1,a0,1637
    1280:	42b22223          	sw	a1,1060(tp) # 424 <inst_35+0x4>

00001284 <inst_288>:
    1284:	55555537          	lui	a0,0x55555
    1288:	55450513          	addi	a0,a0,1364 # 55555554 <_end+0x55550b50>
    128c:	02c56593          	ori	a1,a0,44
    1290:	42b22423          	sw	a1,1064(tp) # 428 <inst_35+0x8>

00001294 <inst_289>:
    1294:	55555537          	lui	a0,0x55555
    1298:	55450513          	addi	a0,a0,1364 # 55555554 <_end+0x55550b50>
    129c:	55656593          	ori	a1,a0,1366
    12a0:	42b22623          	sw	a1,1068(tp) # 42c <inst_36>

000012a4 <inst_290>:
    12a4:	55555537          	lui	a0,0x55555
    12a8:	55450513          	addi	a0,a0,1364 # 55555554 <_end+0x55550b50>
    12ac:	aab56593          	ori	a1,a0,-1365
    12b0:	42b22823          	sw	a1,1072(tp) # 430 <inst_36+0x4>

000012b4 <inst_291>:
    12b4:	55555537          	lui	a0,0x55555
    12b8:	55450513          	addi	a0,a0,1364 # 55555554 <_end+0x55550b50>
    12bc:	00656593          	ori	a1,a0,6
    12c0:	42b22a23          	sw	a1,1076(tp) # 434 <inst_36+0x8>

000012c4 <inst_292>:
    12c4:	55555537          	lui	a0,0x55555
    12c8:	55450513          	addi	a0,a0,1364 # 55555554 <_end+0x55550b50>
    12cc:	33456593          	ori	a1,a0,820
    12d0:	42b22c23          	sw	a1,1080(tp) # 438 <inst_37>

000012d4 <inst_293>:
    12d4:	55555537          	lui	a0,0x55555
    12d8:	55450513          	addi	a0,a0,1364 # 55555554 <_end+0x55550b50>
    12dc:	66756593          	ori	a1,a0,1639
    12e0:	42b22e23          	sw	a1,1084(tp) # 43c <inst_37+0x4>

000012e4 <inst_294>:
    12e4:	55555537          	lui	a0,0x55555
    12e8:	55450513          	addi	a0,a0,1364 # 55555554 <_end+0x55550b50>
    12ec:	fd456593          	ori	a1,a0,-44
    12f0:	44b22023          	sw	a1,1088(tp) # 440 <inst_37+0x8>

000012f4 <inst_295>:
    12f4:	55555537          	lui	a0,0x55555
    12f8:	55450513          	addi	a0,a0,1364 # 55555554 <_end+0x55550b50>
    12fc:	02e56593          	ori	a1,a0,46
    1300:	44b22223          	sw	a1,1092(tp) # 444 <inst_38>

00001304 <inst_296>:
    1304:	00000513          	li	a0,0
    1308:	00356593          	ori	a1,a0,3
    130c:	44b22423          	sw	a1,1096(tp) # 448 <inst_38+0x4>

00001310 <inst_297>:
    1310:	00000513          	li	a0,0
    1314:	55556593          	ori	a1,a0,1365
    1318:	44b22623          	sw	a1,1100(tp) # 44c <inst_38+0x8>

0000131c <inst_298>:
    131c:	00000513          	li	a0,0
    1320:	aaa56593          	ori	a1,a0,-1366
    1324:	44b22823          	sw	a1,1104(tp) # 450 <inst_39>

00001328 <inst_299>:
    1328:	00000513          	li	a0,0
    132c:	00556593          	ori	a1,a0,5
    1330:	44b22a23          	sw	a1,1108(tp) # 454 <inst_39+0x4>

00001334 <inst_300>:
    1334:	00000513          	li	a0,0
    1338:	33356593          	ori	a1,a0,819
    133c:	44b22c23          	sw	a1,1112(tp) # 458 <inst_39+0x8>

00001340 <inst_301>:
    1340:	00000513          	li	a0,0
    1344:	66656593          	ori	a1,a0,1638
    1348:	44b22e23          	sw	a1,1116(tp) # 45c <inst_40>

0000134c <inst_302>:
    134c:	00000513          	li	a0,0
    1350:	fd356593          	ori	a1,a0,-45
    1354:	46b22023          	sw	a1,1120(tp) # 460 <inst_40+0x4>

00001358 <inst_303>:
    1358:	33333537          	lui	a0,0x33333
    135c:	33450513          	addi	a0,a0,820 # 33333334 <_end+0x3332e930>
    1360:	33256593          	ori	a1,a0,818
    1364:	46b22223          	sw	a1,1124(tp) # 464 <inst_40+0x8>

00001368 <inst_304>:
    1368:	33333537          	lui	a0,0x33333
    136c:	33450513          	addi	a0,a0,820 # 33333334 <_end+0x3332e930>
    1370:	66556593          	ori	a1,a0,1637
    1374:	46b22423          	sw	a1,1128(tp) # 468 <inst_41>

00001378 <inst_305>:
    1378:	33333537          	lui	a0,0x33333
    137c:	33450513          	addi	a0,a0,820 # 33333334 <_end+0x3332e930>
    1380:	02c56593          	ori	a1,a0,44
    1384:	46b22623          	sw	a1,1132(tp) # 46c <inst_41+0x4>

00001388 <inst_306>:
    1388:	33333537          	lui	a0,0x33333
    138c:	33450513          	addi	a0,a0,820 # 33333334 <_end+0x3332e930>
    1390:	55656593          	ori	a1,a0,1366
    1394:	46b22823          	sw	a1,1136(tp) # 470 <inst_41+0x8>

00001398 <inst_307>:
    1398:	33333537          	lui	a0,0x33333
    139c:	33450513          	addi	a0,a0,820 # 33333334 <_end+0x3332e930>
    13a0:	aab56593          	ori	a1,a0,-1365
    13a4:	46b22a23          	sw	a1,1140(tp) # 474 <inst_42>

000013a8 <inst_308>:
    13a8:	33333537          	lui	a0,0x33333
    13ac:	33450513          	addi	a0,a0,820 # 33333334 <_end+0x3332e930>
    13b0:	00656593          	ori	a1,a0,6
    13b4:	46b22c23          	sw	a1,1144(tp) # 478 <inst_42+0x4>

000013b8 <inst_309>:
    13b8:	33333537          	lui	a0,0x33333
    13bc:	33450513          	addi	a0,a0,820 # 33333334 <_end+0x3332e930>
    13c0:	33456593          	ori	a1,a0,820
    13c4:	46b22e23          	sw	a1,1148(tp) # 47c <inst_42+0x8>

000013c8 <inst_310>:
    13c8:	33333537          	lui	a0,0x33333
    13cc:	33450513          	addi	a0,a0,820 # 33333334 <_end+0x3332e930>
    13d0:	66756593          	ori	a1,a0,1639
    13d4:	48b22023          	sw	a1,1152(tp) # 480 <inst_43>

000013d8 <inst_311>:
    13d8:	33333537          	lui	a0,0x33333
    13dc:	33450513          	addi	a0,a0,820 # 33333334 <_end+0x3332e930>
    13e0:	fd456593          	ori	a1,a0,-44
    13e4:	48b22223          	sw	a1,1156(tp) # 484 <inst_43+0x4>

000013e8 <inst_312>:
    13e8:	33333537          	lui	a0,0x33333
    13ec:	33450513          	addi	a0,a0,820 # 33333334 <_end+0x3332e930>
    13f0:	02e56593          	ori	a1,a0,46
    13f4:	48b22423          	sw	a1,1160(tp) # 488 <inst_43+0x8>

000013f8 <inst_313>:
    13f8:	66666537          	lui	a0,0x66666
    13fc:	66750513          	addi	a0,a0,1639 # 66666667 <_end+0x66661c63>
    1400:	00356593          	ori	a1,a0,3
    1404:	48b22623          	sw	a1,1164(tp) # 48c <inst_44>

00001408 <inst_314>:
    1408:	66666537          	lui	a0,0x66666
    140c:	66750513          	addi	a0,a0,1639 # 66666667 <_end+0x66661c63>
    1410:	55556593          	ori	a1,a0,1365
    1414:	48b22823          	sw	a1,1168(tp) # 490 <inst_44+0x4>

00001418 <inst_315>:
    1418:	66666537          	lui	a0,0x66666
    141c:	66750513          	addi	a0,a0,1639 # 66666667 <_end+0x66661c63>
    1420:	aaa56593          	ori	a1,a0,-1366
    1424:	48b22a23          	sw	a1,1172(tp) # 494 <inst_44+0x8>

00001428 <inst_316>:
    1428:	66666537          	lui	a0,0x66666
    142c:	66750513          	addi	a0,a0,1639 # 66666667 <_end+0x66661c63>
    1430:	00556593          	ori	a1,a0,5
    1434:	48b22c23          	sw	a1,1176(tp) # 498 <inst_45>

00001438 <inst_317>:
    1438:	66666537          	lui	a0,0x66666
    143c:	66750513          	addi	a0,a0,1639 # 66666667 <_end+0x66661c63>
    1440:	33356593          	ori	a1,a0,819
    1444:	48b22e23          	sw	a1,1180(tp) # 49c <inst_45+0x4>

00001448 <inst_318>:
    1448:	66666537          	lui	a0,0x66666
    144c:	66750513          	addi	a0,a0,1639 # 66666667 <_end+0x66661c63>
    1450:	66656593          	ori	a1,a0,1638
    1454:	4ab22023          	sw	a1,1184(tp) # 4a0 <inst_45+0x8>

00001458 <inst_319>:
    1458:	66666537          	lui	a0,0x66666
    145c:	66750513          	addi	a0,a0,1639 # 66666667 <_end+0x66661c63>
    1460:	fd356593          	ori	a1,a0,-45
    1464:	4ab22223          	sw	a1,1188(tp) # 4a4 <inst_46>

00001468 <inst_320>:
    1468:	66666537          	lui	a0,0x66666
    146c:	66750513          	addi	a0,a0,1639 # 66666667 <_end+0x66661c63>
    1470:	02d56593          	ori	a1,a0,45
    1474:	4ab22423          	sw	a1,1192(tp) # 4a8 <inst_46+0x4>

00001478 <inst_321>:
    1478:	66666537          	lui	a0,0x66666
    147c:	66750513          	addi	a0,a0,1639 # 66666667 <_end+0x66661c63>
    1480:	00256593          	ori	a1,a0,2
    1484:	4ab22623          	sw	a1,1196(tp) # 4ac <inst_46+0x8>

00001488 <inst_322>:
    1488:	66666537          	lui	a0,0x66666
    148c:	66750513          	addi	a0,a0,1639 # 66666667 <_end+0x66661c63>
    1490:	55456593          	ori	a1,a0,1364
    1494:	4ab22823          	sw	a1,1200(tp) # 4b0 <inst_47>

00001498 <inst_323>:
    1498:	66666537          	lui	a0,0x66666
    149c:	66750513          	addi	a0,a0,1639 # 66666667 <_end+0x66661c63>
    14a0:	00056593          	ori	a1,a0,0
    14a4:	4ab22a23          	sw	a1,1204(tp) # 4b4 <inst_47+0x4>

000014a8 <inst_324>:
    14a8:	66666537          	lui	a0,0x66666
    14ac:	66750513          	addi	a0,a0,1639 # 66666667 <_end+0x66661c63>
    14b0:	00456593          	ori	a1,a0,4
    14b4:	4ab22c23          	sw	a1,1208(tp) # 4b8 <inst_47+0x8>

000014b8 <inst_325>:
    14b8:	66666537          	lui	a0,0x66666
    14bc:	66750513          	addi	a0,a0,1639 # 66666667 <_end+0x66661c63>
    14c0:	33256593          	ori	a1,a0,818
    14c4:	4ab22e23          	sw	a1,1212(tp) # 4bc <inst_48>

000014c8 <inst_326>:
    14c8:	66666537          	lui	a0,0x66666
    14cc:	66750513          	addi	a0,a0,1639 # 66666667 <_end+0x66661c63>
    14d0:	66556593          	ori	a1,a0,1637
    14d4:	4cb22023          	sw	a1,1216(tp) # 4c0 <inst_48+0x4>

000014d8 <inst_327>:
    14d8:	66666537          	lui	a0,0x66666
    14dc:	66750513          	addi	a0,a0,1639 # 66666667 <_end+0x66661c63>
    14e0:	02c56593          	ori	a1,a0,44
    14e4:	4cb22223          	sw	a1,1220(tp) # 4c4 <inst_48+0x8>

000014e8 <inst_328>:
    14e8:	66666537          	lui	a0,0x66666
    14ec:	66750513          	addi	a0,a0,1639 # 66666667 <_end+0x66661c63>
    14f0:	55656593          	ori	a1,a0,1366
    14f4:	4cb22423          	sw	a1,1224(tp) # 4c8 <inst_49>

000014f8 <inst_329>:
    14f8:	66666537          	lui	a0,0x66666
    14fc:	66750513          	addi	a0,a0,1639 # 66666667 <_end+0x66661c63>
    1500:	aab56593          	ori	a1,a0,-1365
    1504:	4cb22623          	sw	a1,1228(tp) # 4cc <inst_49+0x4>

00001508 <inst_330>:
    1508:	66666537          	lui	a0,0x66666
    150c:	66750513          	addi	a0,a0,1639 # 66666667 <_end+0x66661c63>
    1510:	00656593          	ori	a1,a0,6
    1514:	4cb22823          	sw	a1,1232(tp) # 4d0 <inst_49+0x8>

00001518 <inst_331>:
    1518:	66666537          	lui	a0,0x66666
    151c:	66750513          	addi	a0,a0,1639 # 66666667 <_end+0x66661c63>
    1520:	33456593          	ori	a1,a0,820
    1524:	4cb22a23          	sw	a1,1236(tp) # 4d4 <inst_50>

00001528 <inst_332>:
    1528:	66666537          	lui	a0,0x66666
    152c:	66750513          	addi	a0,a0,1639 # 66666667 <_end+0x66661c63>
    1530:	66756593          	ori	a1,a0,1639
    1534:	4cb22c23          	sw	a1,1240(tp) # 4d8 <inst_50+0x4>

00001538 <inst_333>:
    1538:	66666537          	lui	a0,0x66666
    153c:	66750513          	addi	a0,a0,1639 # 66666667 <_end+0x66661c63>
    1540:	fd456593          	ori	a1,a0,-44
    1544:	4cb22e23          	sw	a1,1244(tp) # 4dc <inst_50+0x8>

00001548 <inst_334>:
    1548:	66666537          	lui	a0,0x66666
    154c:	66750513          	addi	a0,a0,1639 # 66666667 <_end+0x66661c63>
    1550:	02e56593          	ori	a1,a0,46
    1554:	4eb22023          	sw	a1,1248(tp) # 4e0 <inst_51>

00001558 <inst_335>:
    1558:	ffff5537          	lui	a0,0xffff5
    155c:	afd50513          	addi	a0,a0,-1283 # ffff4afd <_end+0xffff00f9>
    1560:	00356593          	ori	a1,a0,3
    1564:	4eb22223          	sw	a1,1252(tp) # 4e4 <inst_51+0x4>

00001568 <inst_336>:
    1568:	ffff5537          	lui	a0,0xffff5
    156c:	afd50513          	addi	a0,a0,-1283 # ffff4afd <_end+0xffff00f9>
    1570:	55556593          	ori	a1,a0,1365
    1574:	4eb22423          	sw	a1,1256(tp) # 4e8 <inst_51+0x8>

00001578 <inst_337>:
    1578:	ffff5537          	lui	a0,0xffff5
    157c:	afd50513          	addi	a0,a0,-1283 # ffff4afd <_end+0xffff00f9>
    1580:	aaa56593          	ori	a1,a0,-1366
    1584:	4eb22623          	sw	a1,1260(tp) # 4ec <inst_52>

00001588 <inst_338>:
    1588:	ffff5537          	lui	a0,0xffff5
    158c:	afd50513          	addi	a0,a0,-1283 # ffff4afd <_end+0xffff00f9>
    1590:	00556593          	ori	a1,a0,5
    1594:	4eb22823          	sw	a1,1264(tp) # 4f0 <inst_52+0x4>

00001598 <inst_339>:
    1598:	ffff5537          	lui	a0,0xffff5
    159c:	afd50513          	addi	a0,a0,-1283 # ffff4afd <_end+0xffff00f9>
    15a0:	33356593          	ori	a1,a0,819
    15a4:	4eb22a23          	sw	a1,1268(tp) # 4f4 <inst_52+0x8>

000015a8 <inst_340>:
    15a8:	ffff5537          	lui	a0,0xffff5
    15ac:	afd50513          	addi	a0,a0,-1283 # ffff4afd <_end+0xffff00f9>
    15b0:	66656593          	ori	a1,a0,1638
    15b4:	4eb22c23          	sw	a1,1272(tp) # 4f8 <inst_53>

000015b8 <inst_341>:
    15b8:	ffff5537          	lui	a0,0xffff5
    15bc:	afd50513          	addi	a0,a0,-1283 # ffff4afd <_end+0xffff00f9>
    15c0:	fd356593          	ori	a1,a0,-45
    15c4:	4eb22e23          	sw	a1,1276(tp) # 4fc <inst_53+0x4>

000015c8 <inst_342>:
    15c8:	ffff5537          	lui	a0,0xffff5
    15cc:	afd50513          	addi	a0,a0,-1283 # ffff4afd <_end+0xffff00f9>
    15d0:	02d56593          	ori	a1,a0,45
    15d4:	50b22023          	sw	a1,1280(tp) # 500 <inst_53+0x8>

000015d8 <inst_343>:
    15d8:	ffff5537          	lui	a0,0xffff5
    15dc:	afd50513          	addi	a0,a0,-1283 # ffff4afd <_end+0xffff00f9>
    15e0:	00256593          	ori	a1,a0,2
    15e4:	50b22223          	sw	a1,1284(tp) # 504 <inst_54>

000015e8 <inst_344>:
    15e8:	ffff5537          	lui	a0,0xffff5
    15ec:	afd50513          	addi	a0,a0,-1283 # ffff4afd <_end+0xffff00f9>
    15f0:	55456593          	ori	a1,a0,1364
    15f4:	50b22423          	sw	a1,1288(tp) # 508 <inst_54+0x4>

000015f8 <inst_345>:
    15f8:	ffff5537          	lui	a0,0xffff5
    15fc:	afd50513          	addi	a0,a0,-1283 # ffff4afd <_end+0xffff00f9>
    1600:	00056593          	ori	a1,a0,0
    1604:	50b22623          	sw	a1,1292(tp) # 50c <inst_54+0x8>

00001608 <inst_346>:
    1608:	ffff5537          	lui	a0,0xffff5
    160c:	afd50513          	addi	a0,a0,-1283 # ffff4afd <_end+0xffff00f9>
    1610:	00456593          	ori	a1,a0,4
    1614:	50b22823          	sw	a1,1296(tp) # 510 <inst_55>

00001618 <inst_347>:
    1618:	ffff5537          	lui	a0,0xffff5
    161c:	afd50513          	addi	a0,a0,-1283 # ffff4afd <_end+0xffff00f9>
    1620:	33256593          	ori	a1,a0,818
    1624:	50b22a23          	sw	a1,1300(tp) # 514 <inst_55+0x4>

00001628 <inst_348>:
    1628:	ffff5537          	lui	a0,0xffff5
    162c:	afd50513          	addi	a0,a0,-1283 # ffff4afd <_end+0xffff00f9>
    1630:	66556593          	ori	a1,a0,1637
    1634:	50b22c23          	sw	a1,1304(tp) # 518 <inst_55+0x8>

00001638 <inst_349>:
    1638:	ffff5537          	lui	a0,0xffff5
    163c:	afd50513          	addi	a0,a0,-1283 # ffff4afd <_end+0xffff00f9>
    1640:	02c56593          	ori	a1,a0,44
    1644:	50b22e23          	sw	a1,1308(tp) # 51c <inst_56>

00001648 <inst_350>:
    1648:	ffff5537          	lui	a0,0xffff5
    164c:	afd50513          	addi	a0,a0,-1283 # ffff4afd <_end+0xffff00f9>
    1650:	55656593          	ori	a1,a0,1366
    1654:	52b22023          	sw	a1,1312(tp) # 520 <inst_56+0x4>

00001658 <inst_351>:
    1658:	ffff5537          	lui	a0,0xffff5
    165c:	afd50513          	addi	a0,a0,-1283 # ffff4afd <_end+0xffff00f9>
    1660:	aab56593          	ori	a1,a0,-1365
    1664:	52b22223          	sw	a1,1316(tp) # 524 <inst_56+0x8>

00001668 <inst_352>:
    1668:	ffff5537          	lui	a0,0xffff5
    166c:	afd50513          	addi	a0,a0,-1283 # ffff4afd <_end+0xffff00f9>
    1670:	00656593          	ori	a1,a0,6
    1674:	52b22423          	sw	a1,1320(tp) # 528 <inst_57>

00001678 <inst_353>:
    1678:	ffff5537          	lui	a0,0xffff5
    167c:	afd50513          	addi	a0,a0,-1283 # ffff4afd <_end+0xffff00f9>
    1680:	33456593          	ori	a1,a0,820
    1684:	52b22623          	sw	a1,1324(tp) # 52c <inst_57+0x4>

00001688 <inst_354>:
    1688:	ffff5537          	lui	a0,0xffff5
    168c:	afd50513          	addi	a0,a0,-1283 # ffff4afd <_end+0xffff00f9>
    1690:	66756593          	ori	a1,a0,1639
    1694:	52b22823          	sw	a1,1328(tp) # 530 <inst_57+0x8>

00001698 <inst_355>:
    1698:	ffff5537          	lui	a0,0xffff5
    169c:	afd50513          	addi	a0,a0,-1283 # ffff4afd <_end+0xffff00f9>
    16a0:	fd456593          	ori	a1,a0,-44
    16a4:	52b22a23          	sw	a1,1332(tp) # 534 <inst_58>

000016a8 <inst_356>:
    16a8:	ffff5537          	lui	a0,0xffff5
    16ac:	afd50513          	addi	a0,a0,-1283 # ffff4afd <_end+0xffff00f9>
    16b0:	02e56593          	ori	a1,a0,46
    16b4:	52b22c23          	sw	a1,1336(tp) # 538 <inst_58+0x4>

000016b8 <inst_357>:
    16b8:	0000b537          	lui	a0,0xb
    16bc:	50550513          	addi	a0,a0,1285 # b505 <_end+0x6b01>
    16c0:	00356593          	ori	a1,a0,3
    16c4:	52b22e23          	sw	a1,1340(tp) # 53c <inst_58+0x8>

000016c8 <inst_358>:
    16c8:	0000b537          	lui	a0,0xb
    16cc:	50550513          	addi	a0,a0,1285 # b505 <_end+0x6b01>
    16d0:	55556593          	ori	a1,a0,1365
    16d4:	54b22023          	sw	a1,1344(tp) # 540 <inst_59>

000016d8 <inst_359>:
    16d8:	0000b537          	lui	a0,0xb
    16dc:	50550513          	addi	a0,a0,1285 # b505 <_end+0x6b01>
    16e0:	aaa56593          	ori	a1,a0,-1366
    16e4:	54b22223          	sw	a1,1348(tp) # 544 <inst_59+0x4>

000016e8 <inst_360>:
    16e8:	0000b537          	lui	a0,0xb
    16ec:	50550513          	addi	a0,a0,1285 # b505 <_end+0x6b01>
    16f0:	00556593          	ori	a1,a0,5
    16f4:	54b22423          	sw	a1,1352(tp) # 548 <inst_59+0x8>

000016f8 <inst_361>:
    16f8:	0000b537          	lui	a0,0xb
    16fc:	50550513          	addi	a0,a0,1285 # b505 <_end+0x6b01>
    1700:	33356593          	ori	a1,a0,819
    1704:	54b22623          	sw	a1,1356(tp) # 54c <inst_60>

00001708 <inst_362>:
    1708:	0000b537          	lui	a0,0xb
    170c:	50550513          	addi	a0,a0,1285 # b505 <_end+0x6b01>
    1710:	66656593          	ori	a1,a0,1638
    1714:	54b22823          	sw	a1,1360(tp) # 550 <inst_60+0x4>

00001718 <inst_363>:
    1718:	0000b537          	lui	a0,0xb
    171c:	50550513          	addi	a0,a0,1285 # b505 <_end+0x6b01>
    1720:	fd356593          	ori	a1,a0,-45
    1724:	54b22a23          	sw	a1,1364(tp) # 554 <inst_60+0x8>

00001728 <inst_364>:
    1728:	0000b537          	lui	a0,0xb
    172c:	50550513          	addi	a0,a0,1285 # b505 <_end+0x6b01>
    1730:	02d56593          	ori	a1,a0,45
    1734:	54b22c23          	sw	a1,1368(tp) # 558 <inst_60+0xc>

00001738 <inst_365>:
    1738:	0000b537          	lui	a0,0xb
    173c:	50550513          	addi	a0,a0,1285 # b505 <_end+0x6b01>
    1740:	00256593          	ori	a1,a0,2
    1744:	54b22e23          	sw	a1,1372(tp) # 55c <inst_61>

00001748 <inst_366>:
    1748:	0000b537          	lui	a0,0xb
    174c:	50550513          	addi	a0,a0,1285 # b505 <_end+0x6b01>
    1750:	55456593          	ori	a1,a0,1364
    1754:	56b22023          	sw	a1,1376(tp) # 560 <inst_61+0x4>

00001758 <inst_367>:
    1758:	0000b537          	lui	a0,0xb
    175c:	50550513          	addi	a0,a0,1285 # b505 <_end+0x6b01>
    1760:	00056593          	ori	a1,a0,0
    1764:	56b22223          	sw	a1,1380(tp) # 564 <inst_61+0x8>

00001768 <inst_368>:
    1768:	0000b537          	lui	a0,0xb
    176c:	50550513          	addi	a0,a0,1285 # b505 <_end+0x6b01>
    1770:	00456593          	ori	a1,a0,4
    1774:	56b22423          	sw	a1,1384(tp) # 568 <inst_61+0xc>

00001778 <inst_369>:
    1778:	0000b537          	lui	a0,0xb
    177c:	50550513          	addi	a0,a0,1285 # b505 <_end+0x6b01>
    1780:	33256593          	ori	a1,a0,818
    1784:	56b22623          	sw	a1,1388(tp) # 56c <inst_62>

00001788 <inst_370>:
    1788:	0000b537          	lui	a0,0xb
    178c:	50550513          	addi	a0,a0,1285 # b505 <_end+0x6b01>
    1790:	66556593          	ori	a1,a0,1637
    1794:	56b22823          	sw	a1,1392(tp) # 570 <inst_62+0x4>

00001798 <inst_371>:
    1798:	0000b537          	lui	a0,0xb
    179c:	50550513          	addi	a0,a0,1285 # b505 <_end+0x6b01>
    17a0:	02c56593          	ori	a1,a0,44
    17a4:	56b22a23          	sw	a1,1396(tp) # 574 <inst_62+0x8>

000017a8 <inst_372>:
    17a8:	0000b537          	lui	a0,0xb
    17ac:	50550513          	addi	a0,a0,1285 # b505 <_end+0x6b01>
    17b0:	55656593          	ori	a1,a0,1366
    17b4:	56b22c23          	sw	a1,1400(tp) # 578 <inst_62+0xc>

000017b8 <inst_373>:
    17b8:	0000b537          	lui	a0,0xb
    17bc:	50550513          	addi	a0,a0,1285 # b505 <_end+0x6b01>
    17c0:	aab56593          	ori	a1,a0,-1365
    17c4:	56b22e23          	sw	a1,1404(tp) # 57c <inst_63>

000017c8 <inst_374>:
    17c8:	0000b537          	lui	a0,0xb
    17cc:	50550513          	addi	a0,a0,1285 # b505 <_end+0x6b01>
    17d0:	00656593          	ori	a1,a0,6
    17d4:	58b22023          	sw	a1,1408(tp) # 580 <inst_63+0x4>

000017d8 <inst_375>:
    17d8:	0000b537          	lui	a0,0xb
    17dc:	50550513          	addi	a0,a0,1285 # b505 <_end+0x6b01>
    17e0:	33456593          	ori	a1,a0,820
    17e4:	58b22223          	sw	a1,1412(tp) # 584 <inst_63+0x8>

000017e8 <inst_376>:
    17e8:	0000b537          	lui	a0,0xb
    17ec:	50550513          	addi	a0,a0,1285 # b505 <_end+0x6b01>
    17f0:	66756593          	ori	a1,a0,1639
    17f4:	58b22423          	sw	a1,1416(tp) # 588 <inst_63+0xc>

000017f8 <inst_377>:
    17f8:	0000b537          	lui	a0,0xb
    17fc:	50550513          	addi	a0,a0,1285 # b505 <_end+0x6b01>
    1800:	fd456593          	ori	a1,a0,-44
    1804:	58b22623          	sw	a1,1420(tp) # 58c <inst_64>

00001808 <inst_378>:
    1808:	0000b537          	lui	a0,0xb
    180c:	50550513          	addi	a0,a0,1285 # b505 <_end+0x6b01>
    1810:	02e56593          	ori	a1,a0,46
    1814:	58b22823          	sw	a1,1424(tp) # 590 <inst_64+0x4>

00001818 <inst_379>:
    1818:	00000513          	li	a0,0
    181c:	02d56593          	ori	a1,a0,45
    1820:	58b22a23          	sw	a1,1428(tp) # 594 <inst_64+0x8>

00001824 <inst_380>:
    1824:	00000513          	li	a0,0
    1828:	00256593          	ori	a1,a0,2
    182c:	58b22c23          	sw	a1,1432(tp) # 598 <inst_64+0xc>

00001830 <inst_381>:
    1830:	00000513          	li	a0,0
    1834:	55456593          	ori	a1,a0,1364
    1838:	58b22e23          	sw	a1,1436(tp) # 59c <inst_65>

0000183c <inst_382>:
    183c:	00000513          	li	a0,0
    1840:	00456593          	ori	a1,a0,4
    1844:	5ab22023          	sw	a1,1440(tp) # 5a0 <inst_65+0x4>

00001848 <inst_383>:
    1848:	00000513          	li	a0,0
    184c:	33256593          	ori	a1,a0,818
    1850:	5ab22223          	sw	a1,1444(tp) # 5a4 <inst_65+0x8>

00001854 <inst_384>:
    1854:	00000513          	li	a0,0
    1858:	66556593          	ori	a1,a0,1637
    185c:	5ab22423          	sw	a1,1448(tp) # 5a8 <inst_65+0xc>

00001860 <inst_385>:
    1860:	00000513          	li	a0,0
    1864:	02c56593          	ori	a1,a0,44
    1868:	5ab22623          	sw	a1,1452(tp) # 5ac <inst_66>

0000186c <inst_386>:
    186c:	00000513          	li	a0,0
    1870:	55656593          	ori	a1,a0,1366
    1874:	5ab22823          	sw	a1,1456(tp) # 5b0 <inst_66+0x4>

00001878 <inst_387>:
    1878:	00000513          	li	a0,0
    187c:	aab56593          	ori	a1,a0,-1365
    1880:	5ab22a23          	sw	a1,1460(tp) # 5b4 <inst_66+0x8>

00001884 <inst_388>:
    1884:	00000513          	li	a0,0
    1888:	00656593          	ori	a1,a0,6
    188c:	5ab22c23          	sw	a1,1464(tp) # 5b8 <inst_66+0xc>

00001890 <inst_389>:
    1890:	00000513          	li	a0,0
    1894:	33456593          	ori	a1,a0,820
    1898:	5ab22e23          	sw	a1,1468(tp) # 5bc <inst_67>

0000189c <inst_390>:
    189c:	00000513          	li	a0,0
    18a0:	66756593          	ori	a1,a0,1639
    18a4:	5cb22023          	sw	a1,1472(tp) # 5c0 <inst_67+0x4>

000018a8 <inst_391>:
    18a8:	00000513          	li	a0,0
    18ac:	fd456593          	ori	a1,a0,-44
    18b0:	5cb22223          	sw	a1,1476(tp) # 5c4 <inst_67+0x8>

000018b4 <inst_392>:
    18b4:	00000513          	li	a0,0
    18b8:	02e56593          	ori	a1,a0,46
    18bc:	5cb22423          	sw	a1,1480(tp) # 5c8 <inst_67+0xc>

000018c0 <inst_393>:
    18c0:	00400513          	li	a0,4
    18c4:	00356593          	ori	a1,a0,3
    18c8:	5cb22623          	sw	a1,1484(tp) # 5cc <inst_68>

000018cc <inst_394>:
    18cc:	00400513          	li	a0,4
    18d0:	55556593          	ori	a1,a0,1365
    18d4:	5cb22823          	sw	a1,1488(tp) # 5d0 <inst_68+0x4>

000018d8 <inst_395>:
    18d8:	00400513          	li	a0,4
    18dc:	aaa56593          	ori	a1,a0,-1366
    18e0:	5cb22a23          	sw	a1,1492(tp) # 5d4 <inst_68+0x8>

000018e4 <inst_396>:
    18e4:	00400513          	li	a0,4
    18e8:	33356593          	ori	a1,a0,819
    18ec:	5cb22c23          	sw	a1,1496(tp) # 5d8 <inst_68+0xc>

000018f0 <inst_397>:
    18f0:	00400513          	li	a0,4
    18f4:	66656593          	ori	a1,a0,1638
    18f8:	5cb22e23          	sw	a1,1500(tp) # 5dc <inst_69>

000018fc <inst_398>:
    18fc:	00400513          	li	a0,4
    1900:	fd356593          	ori	a1,a0,-45
    1904:	5eb22023          	sw	a1,1504(tp) # 5e0 <inst_69+0x4>

00001908 <inst_399>:
    1908:	00400513          	li	a0,4
    190c:	02d56593          	ori	a1,a0,45
    1910:	5eb22223          	sw	a1,1508(tp) # 5e4 <inst_69+0x8>

00001914 <inst_400>:
    1914:	00400513          	li	a0,4
    1918:	00256593          	ori	a1,a0,2
    191c:	5eb22423          	sw	a1,1512(tp) # 5e8 <inst_69+0xc>

00001920 <inst_401>:
    1920:	00400513          	li	a0,4
    1924:	55456593          	ori	a1,a0,1364
    1928:	5eb22623          	sw	a1,1516(tp) # 5ec <inst_70>

0000192c <inst_402>:
    192c:	00400513          	li	a0,4
    1930:	00056593          	ori	a1,a0,0
    1934:	5eb22823          	sw	a1,1520(tp) # 5f0 <inst_70+0x4>

00001938 <inst_403>:
    1938:	00400513          	li	a0,4
    193c:	00456593          	ori	a1,a0,4
    1940:	5eb22a23          	sw	a1,1524(tp) # 5f4 <inst_70+0x8>

00001944 <inst_404>:
    1944:	00400513          	li	a0,4
    1948:	33256593          	ori	a1,a0,818
    194c:	5eb22c23          	sw	a1,1528(tp) # 5f8 <inst_70+0xc>

00001950 <inst_405>:
    1950:	00400513          	li	a0,4
    1954:	66556593          	ori	a1,a0,1637
    1958:	5eb22e23          	sw	a1,1532(tp) # 5fc <inst_71>

0000195c <inst_406>:
    195c:	00400513          	li	a0,4
    1960:	02c56593          	ori	a1,a0,44
    1964:	60b22023          	sw	a1,1536(tp) # 600 <inst_71+0x4>

00001968 <inst_407>:
    1968:	00400513          	li	a0,4
    196c:	55656593          	ori	a1,a0,1366
    1970:	60b22223          	sw	a1,1540(tp) # 604 <inst_71+0x8>

00001974 <inst_408>:
    1974:	00400513          	li	a0,4
    1978:	aab56593          	ori	a1,a0,-1365
    197c:	60b22423          	sw	a1,1544(tp) # 608 <inst_71+0xc>

00001980 <inst_409>:
    1980:	00400513          	li	a0,4
    1984:	00656593          	ori	a1,a0,6
    1988:	60b22623          	sw	a1,1548(tp) # 60c <inst_72>

0000198c <inst_410>:
    198c:	00400513          	li	a0,4
    1990:	33456593          	ori	a1,a0,820
    1994:	60b22823          	sw	a1,1552(tp) # 610 <inst_72+0x4>

00001998 <inst_411>:
    1998:	00400513          	li	a0,4
    199c:	66756593          	ori	a1,a0,1639
    19a0:	60b22a23          	sw	a1,1556(tp) # 614 <inst_72+0x8>

000019a4 <inst_412>:
    19a4:	00400513          	li	a0,4
    19a8:	fd456593          	ori	a1,a0,-44
    19ac:	60b22c23          	sw	a1,1560(tp) # 618 <inst_72+0xc>

000019b0 <inst_413>:
    19b0:	00400513          	li	a0,4
    19b4:	02e56593          	ori	a1,a0,46
    19b8:	60b22e23          	sw	a1,1564(tp) # 61c <inst_73>

000019bc <inst_414>:
    19bc:	33333537          	lui	a0,0x33333
    19c0:	33250513          	addi	a0,a0,818 # 33333332 <_end+0x3332e92e>
    19c4:	00356593          	ori	a1,a0,3
    19c8:	62b22023          	sw	a1,1568(tp) # 620 <inst_73+0x4>

000019cc <inst_415>:
    19cc:	33333537          	lui	a0,0x33333
    19d0:	33250513          	addi	a0,a0,818 # 33333332 <_end+0x3332e92e>
    19d4:	55556593          	ori	a1,a0,1365
    19d8:	62b22223          	sw	a1,1572(tp) # 624 <inst_73+0x8>

000019dc <inst_416>:
    19dc:	33333537          	lui	a0,0x33333
    19e0:	33250513          	addi	a0,a0,818 # 33333332 <_end+0x3332e92e>
    19e4:	aaa56593          	ori	a1,a0,-1366
    19e8:	62b22423          	sw	a1,1576(tp) # 628 <inst_73+0xc>

000019ec <inst_417>:
    19ec:	33333537          	lui	a0,0x33333
    19f0:	33250513          	addi	a0,a0,818 # 33333332 <_end+0x3332e92e>
    19f4:	00556593          	ori	a1,a0,5
    19f8:	62b22623          	sw	a1,1580(tp) # 62c <inst_74>

000019fc <inst_418>:
    19fc:	33333537          	lui	a0,0x33333
    1a00:	33250513          	addi	a0,a0,818 # 33333332 <_end+0x3332e92e>
    1a04:	33356593          	ori	a1,a0,819
    1a08:	62b22823          	sw	a1,1584(tp) # 630 <inst_74+0x4>

00001a0c <inst_419>:
    1a0c:	33333537          	lui	a0,0x33333
    1a10:	33250513          	addi	a0,a0,818 # 33333332 <_end+0x3332e92e>
    1a14:	66656593          	ori	a1,a0,1638
    1a18:	62b22a23          	sw	a1,1588(tp) # 634 <inst_74+0x8>

00001a1c <inst_420>:
    1a1c:	33333537          	lui	a0,0x33333
    1a20:	33250513          	addi	a0,a0,818 # 33333332 <_end+0x3332e92e>
    1a24:	fd356593          	ori	a1,a0,-45
    1a28:	62b22c23          	sw	a1,1592(tp) # 638 <inst_74+0xc>

00001a2c <inst_421>:
    1a2c:	33333537          	lui	a0,0x33333
    1a30:	33250513          	addi	a0,a0,818 # 33333332 <_end+0x3332e92e>
    1a34:	02d56593          	ori	a1,a0,45
    1a38:	62b22e23          	sw	a1,1596(tp) # 63c <inst_75>

00001a3c <inst_422>:
    1a3c:	33333537          	lui	a0,0x33333
    1a40:	33250513          	addi	a0,a0,818 # 33333332 <_end+0x3332e92e>
    1a44:	00256593          	ori	a1,a0,2
    1a48:	64b22023          	sw	a1,1600(tp) # 640 <inst_75+0x4>

00001a4c <inst_423>:
    1a4c:	33333537          	lui	a0,0x33333
    1a50:	33250513          	addi	a0,a0,818 # 33333332 <_end+0x3332e92e>
    1a54:	55456593          	ori	a1,a0,1364
    1a58:	64b22223          	sw	a1,1604(tp) # 644 <inst_75+0x8>

00001a5c <inst_424>:
    1a5c:	33333537          	lui	a0,0x33333
    1a60:	33250513          	addi	a0,a0,818 # 33333332 <_end+0x3332e92e>
    1a64:	00056593          	ori	a1,a0,0
    1a68:	64b22423          	sw	a1,1608(tp) # 648 <inst_75+0xc>

00001a6c <inst_425>:
    1a6c:	33333537          	lui	a0,0x33333
    1a70:	33250513          	addi	a0,a0,818 # 33333332 <_end+0x3332e92e>
    1a74:	00456593          	ori	a1,a0,4
    1a78:	64b22623          	sw	a1,1612(tp) # 64c <inst_76>

00001a7c <inst_426>:
    1a7c:	33333537          	lui	a0,0x33333
    1a80:	33250513          	addi	a0,a0,818 # 33333332 <_end+0x3332e92e>
    1a84:	33256593          	ori	a1,a0,818
    1a88:	64b22823          	sw	a1,1616(tp) # 650 <inst_76+0x4>

00001a8c <inst_427>:
    1a8c:	33333537          	lui	a0,0x33333
    1a90:	33250513          	addi	a0,a0,818 # 33333332 <_end+0x3332e92e>
    1a94:	66556593          	ori	a1,a0,1637
    1a98:	64b22a23          	sw	a1,1620(tp) # 654 <inst_76+0x8>

00001a9c <inst_428>:
    1a9c:	33333537          	lui	a0,0x33333
    1aa0:	33250513          	addi	a0,a0,818 # 33333332 <_end+0x3332e92e>
    1aa4:	02c56593          	ori	a1,a0,44
    1aa8:	64b22c23          	sw	a1,1624(tp) # 658 <inst_76+0xc>

00001aac <inst_429>:
    1aac:	33333537          	lui	a0,0x33333
    1ab0:	33250513          	addi	a0,a0,818 # 33333332 <_end+0x3332e92e>
    1ab4:	55656593          	ori	a1,a0,1366
    1ab8:	64b22e23          	sw	a1,1628(tp) # 65c <inst_77>

00001abc <inst_430>:
    1abc:	33333537          	lui	a0,0x33333
    1ac0:	33250513          	addi	a0,a0,818 # 33333332 <_end+0x3332e92e>
    1ac4:	aab56593          	ori	a1,a0,-1365
    1ac8:	66b22023          	sw	a1,1632(tp) # 660 <inst_77+0x4>

00001acc <inst_431>:
    1acc:	33333537          	lui	a0,0x33333
    1ad0:	33250513          	addi	a0,a0,818 # 33333332 <_end+0x3332e92e>
    1ad4:	00656593          	ori	a1,a0,6
    1ad8:	66b22223          	sw	a1,1636(tp) # 664 <inst_77+0x8>

00001adc <inst_432>:
    1adc:	33333537          	lui	a0,0x33333
    1ae0:	33250513          	addi	a0,a0,818 # 33333332 <_end+0x3332e92e>
    1ae4:	33456593          	ori	a1,a0,820
    1ae8:	66b22423          	sw	a1,1640(tp) # 668 <inst_78>

00001aec <inst_433>:
    1aec:	33333537          	lui	a0,0x33333
    1af0:	33250513          	addi	a0,a0,818 # 33333332 <_end+0x3332e92e>
    1af4:	66756593          	ori	a1,a0,1639
    1af8:	66b22623          	sw	a1,1644(tp) # 66c <inst_78+0x4>

00001afc <inst_434>:
    1afc:	33333537          	lui	a0,0x33333
    1b00:	33250513          	addi	a0,a0,818 # 33333332 <_end+0x3332e92e>
    1b04:	fd456593          	ori	a1,a0,-44
    1b08:	66b22823          	sw	a1,1648(tp) # 670 <inst_78+0x8>

00001b0c <inst_435>:
    1b0c:	33333537          	lui	a0,0x33333
    1b10:	33250513          	addi	a0,a0,818 # 33333332 <_end+0x3332e92e>
    1b14:	02e56593          	ori	a1,a0,46
    1b18:	66b22a23          	sw	a1,1652(tp) # 674 <inst_79>

00001b1c <inst_436>:
    1b1c:	66666537          	lui	a0,0x66666
    1b20:	66550513          	addi	a0,a0,1637 # 66666665 <_end+0x66661c61>
    1b24:	00356593          	ori	a1,a0,3
    1b28:	66b22c23          	sw	a1,1656(tp) # 678 <inst_79+0x4>

00001b2c <inst_437>:
    1b2c:	66666537          	lui	a0,0x66666
    1b30:	66550513          	addi	a0,a0,1637 # 66666665 <_end+0x66661c61>
    1b34:	55556593          	ori	a1,a0,1365
    1b38:	66b22e23          	sw	a1,1660(tp) # 67c <inst_79+0x8>

00001b3c <inst_438>:
    1b3c:	66666537          	lui	a0,0x66666
    1b40:	66550513          	addi	a0,a0,1637 # 66666665 <_end+0x66661c61>
    1b44:	aaa56593          	ori	a1,a0,-1366
    1b48:	68b22023          	sw	a1,1664(tp) # 680 <inst_80>

00001b4c <inst_439>:
    1b4c:	66666537          	lui	a0,0x66666
    1b50:	66550513          	addi	a0,a0,1637 # 66666665 <_end+0x66661c61>
    1b54:	00556593          	ori	a1,a0,5
    1b58:	68b22223          	sw	a1,1668(tp) # 684 <inst_80+0x4>

00001b5c <inst_440>:
    1b5c:	66666537          	lui	a0,0x66666
    1b60:	66550513          	addi	a0,a0,1637 # 66666665 <_end+0x66661c61>
    1b64:	33356593          	ori	a1,a0,819
    1b68:	68b22423          	sw	a1,1672(tp) # 688 <inst_80+0x8>

00001b6c <inst_441>:
    1b6c:	66666537          	lui	a0,0x66666
    1b70:	66550513          	addi	a0,a0,1637 # 66666665 <_end+0x66661c61>
    1b74:	66656593          	ori	a1,a0,1638
    1b78:	68b22623          	sw	a1,1676(tp) # 68c <inst_81>

00001b7c <inst_442>:
    1b7c:	66666537          	lui	a0,0x66666
    1b80:	66550513          	addi	a0,a0,1637 # 66666665 <_end+0x66661c61>
    1b84:	fd356593          	ori	a1,a0,-45
    1b88:	68b22823          	sw	a1,1680(tp) # 690 <inst_81+0x4>

00001b8c <inst_443>:
    1b8c:	66666537          	lui	a0,0x66666
    1b90:	66550513          	addi	a0,a0,1637 # 66666665 <_end+0x66661c61>
    1b94:	02d56593          	ori	a1,a0,45
    1b98:	68b22a23          	sw	a1,1684(tp) # 694 <inst_81+0x8>

00001b9c <inst_444>:
    1b9c:	66666537          	lui	a0,0x66666
    1ba0:	66550513          	addi	a0,a0,1637 # 66666665 <_end+0x66661c61>
    1ba4:	00256593          	ori	a1,a0,2
    1ba8:	68b22c23          	sw	a1,1688(tp) # 698 <inst_82>

00001bac <inst_445>:
    1bac:	66666537          	lui	a0,0x66666
    1bb0:	66550513          	addi	a0,a0,1637 # 66666665 <_end+0x66661c61>
    1bb4:	55456593          	ori	a1,a0,1364
    1bb8:	68b22e23          	sw	a1,1692(tp) # 69c <inst_82+0x4>

00001bbc <inst_446>:
    1bbc:	66666537          	lui	a0,0x66666
    1bc0:	66550513          	addi	a0,a0,1637 # 66666665 <_end+0x66661c61>
    1bc4:	00056593          	ori	a1,a0,0
    1bc8:	6ab22023          	sw	a1,1696(tp) # 6a0 <inst_82+0x8>

00001bcc <inst_447>:
    1bcc:	66666537          	lui	a0,0x66666
    1bd0:	66550513          	addi	a0,a0,1637 # 66666665 <_end+0x66661c61>
    1bd4:	00456593          	ori	a1,a0,4
    1bd8:	6ab22223          	sw	a1,1700(tp) # 6a4 <inst_83>

00001bdc <inst_448>:
    1bdc:	66666537          	lui	a0,0x66666
    1be0:	66550513          	addi	a0,a0,1637 # 66666665 <_end+0x66661c61>
    1be4:	33256593          	ori	a1,a0,818
    1be8:	6ab22423          	sw	a1,1704(tp) # 6a8 <inst_83+0x4>

00001bec <inst_449>:
    1bec:	66666537          	lui	a0,0x66666
    1bf0:	66550513          	addi	a0,a0,1637 # 66666665 <_end+0x66661c61>
    1bf4:	66556593          	ori	a1,a0,1637
    1bf8:	6ab22623          	sw	a1,1708(tp) # 6ac <inst_83+0x8>

00001bfc <inst_450>:
    1bfc:	66666537          	lui	a0,0x66666
    1c00:	66550513          	addi	a0,a0,1637 # 66666665 <_end+0x66661c61>
    1c04:	02c56593          	ori	a1,a0,44
    1c08:	6ab22823          	sw	a1,1712(tp) # 6b0 <inst_84>

00001c0c <inst_451>:
    1c0c:	66666537          	lui	a0,0x66666
    1c10:	66550513          	addi	a0,a0,1637 # 66666665 <_end+0x66661c61>
    1c14:	55656593          	ori	a1,a0,1366
    1c18:	6ab22a23          	sw	a1,1716(tp) # 6b4 <inst_84+0x4>

00001c1c <inst_452>:
    1c1c:	66666537          	lui	a0,0x66666
    1c20:	66550513          	addi	a0,a0,1637 # 66666665 <_end+0x66661c61>
    1c24:	aab56593          	ori	a1,a0,-1365
    1c28:	6ab22c23          	sw	a1,1720(tp) # 6b8 <inst_84+0x8>

00001c2c <inst_453>:
    1c2c:	66666537          	lui	a0,0x66666
    1c30:	66550513          	addi	a0,a0,1637 # 66666665 <_end+0x66661c61>
    1c34:	00656593          	ori	a1,a0,6
    1c38:	6ab22e23          	sw	a1,1724(tp) # 6bc <inst_85>

00001c3c <inst_454>:
    1c3c:	66666537          	lui	a0,0x66666
    1c40:	66550513          	addi	a0,a0,1637 # 66666665 <_end+0x66661c61>
    1c44:	33456593          	ori	a1,a0,820
    1c48:	6cb22023          	sw	a1,1728(tp) # 6c0 <inst_85+0x4>

00001c4c <inst_455>:
    1c4c:	66666537          	lui	a0,0x66666
    1c50:	66550513          	addi	a0,a0,1637 # 66666665 <_end+0x66661c61>
    1c54:	66756593          	ori	a1,a0,1639
    1c58:	6cb22223          	sw	a1,1732(tp) # 6c4 <inst_85+0x8>

00001c5c <inst_456>:
    1c5c:	66666537          	lui	a0,0x66666
    1c60:	66550513          	addi	a0,a0,1637 # 66666665 <_end+0x66661c61>
    1c64:	fd456593          	ori	a1,a0,-44
    1c68:	6cb22423          	sw	a1,1736(tp) # 6c8 <inst_86>

00001c6c <inst_457>:
    1c6c:	66666537          	lui	a0,0x66666
    1c70:	66550513          	addi	a0,a0,1637 # 66666665 <_end+0x66661c61>
    1c74:	02e56593          	ori	a1,a0,46
    1c78:	6cb22623          	sw	a1,1740(tp) # 6cc <inst_86+0x4>

00001c7c <inst_458>:
    1c7c:	0000b537          	lui	a0,0xb
    1c80:	50350513          	addi	a0,a0,1283 # b503 <_end+0x6aff>
    1c84:	00356593          	ori	a1,a0,3
    1c88:	6cb22823          	sw	a1,1744(tp) # 6d0 <inst_86+0x8>

00001c8c <inst_459>:
    1c8c:	0000b537          	lui	a0,0xb
    1c90:	50350513          	addi	a0,a0,1283 # b503 <_end+0x6aff>
    1c94:	55556593          	ori	a1,a0,1365
    1c98:	6cb22a23          	sw	a1,1748(tp) # 6d4 <inst_87>

00001c9c <inst_460>:
    1c9c:	0000b537          	lui	a0,0xb
    1ca0:	50350513          	addi	a0,a0,1283 # b503 <_end+0x6aff>
    1ca4:	aaa56593          	ori	a1,a0,-1366
    1ca8:	6cb22c23          	sw	a1,1752(tp) # 6d8 <inst_87+0x4>

00001cac <inst_461>:
    1cac:	0000b537          	lui	a0,0xb
    1cb0:	50350513          	addi	a0,a0,1283 # b503 <_end+0x6aff>
    1cb4:	00556593          	ori	a1,a0,5
    1cb8:	6cb22e23          	sw	a1,1756(tp) # 6dc <inst_87+0x8>

00001cbc <inst_462>:
    1cbc:	0000b537          	lui	a0,0xb
    1cc0:	50350513          	addi	a0,a0,1283 # b503 <_end+0x6aff>
    1cc4:	33356593          	ori	a1,a0,819
    1cc8:	6eb22023          	sw	a1,1760(tp) # 6e0 <inst_88>

00001ccc <inst_463>:
    1ccc:	0000b537          	lui	a0,0xb
    1cd0:	50350513          	addi	a0,a0,1283 # b503 <_end+0x6aff>
    1cd4:	66656593          	ori	a1,a0,1638
    1cd8:	6eb22223          	sw	a1,1764(tp) # 6e4 <inst_88+0x4>

00001cdc <inst_464>:
    1cdc:	0000b537          	lui	a0,0xb
    1ce0:	50350513          	addi	a0,a0,1283 # b503 <_end+0x6aff>
    1ce4:	fd356593          	ori	a1,a0,-45
    1ce8:	6eb22423          	sw	a1,1768(tp) # 6e8 <inst_88+0x8>

00001cec <inst_465>:
    1cec:	0000b537          	lui	a0,0xb
    1cf0:	50350513          	addi	a0,a0,1283 # b503 <_end+0x6aff>
    1cf4:	02d56593          	ori	a1,a0,45
    1cf8:	6eb22623          	sw	a1,1772(tp) # 6ec <inst_89>

00001cfc <inst_466>:
    1cfc:	0000b537          	lui	a0,0xb
    1d00:	50350513          	addi	a0,a0,1283 # b503 <_end+0x6aff>
    1d04:	00256593          	ori	a1,a0,2
    1d08:	6eb22823          	sw	a1,1776(tp) # 6f0 <inst_89+0x4>

00001d0c <inst_467>:
    1d0c:	0000b537          	lui	a0,0xb
    1d10:	50350513          	addi	a0,a0,1283 # b503 <_end+0x6aff>
    1d14:	55456593          	ori	a1,a0,1364
    1d18:	6eb22a23          	sw	a1,1780(tp) # 6f4 <inst_89+0x8>

00001d1c <inst_468>:
    1d1c:	0000b537          	lui	a0,0xb
    1d20:	50350513          	addi	a0,a0,1283 # b503 <_end+0x6aff>
    1d24:	00056593          	ori	a1,a0,0
    1d28:	6eb22c23          	sw	a1,1784(tp) # 6f8 <inst_90>

00001d2c <inst_469>:
    1d2c:	0000b537          	lui	a0,0xb
    1d30:	50350513          	addi	a0,a0,1283 # b503 <_end+0x6aff>
    1d34:	00456593          	ori	a1,a0,4
    1d38:	6eb22e23          	sw	a1,1788(tp) # 6fc <inst_90+0x4>

00001d3c <inst_470>:
    1d3c:	0000b537          	lui	a0,0xb
    1d40:	50350513          	addi	a0,a0,1283 # b503 <_end+0x6aff>
    1d44:	33256593          	ori	a1,a0,818
    1d48:	70b22023          	sw	a1,1792(tp) # 700 <inst_90+0x8>

00001d4c <inst_471>:
    1d4c:	0000b537          	lui	a0,0xb
    1d50:	50350513          	addi	a0,a0,1283 # b503 <_end+0x6aff>
    1d54:	66556593          	ori	a1,a0,1637
    1d58:	70b22223          	sw	a1,1796(tp) # 704 <inst_91>

00001d5c <inst_472>:
    1d5c:	0000b537          	lui	a0,0xb
    1d60:	50350513          	addi	a0,a0,1283 # b503 <_end+0x6aff>
    1d64:	02c56593          	ori	a1,a0,44
    1d68:	70b22423          	sw	a1,1800(tp) # 708 <inst_91+0x4>

00001d6c <inst_473>:
    1d6c:	0000b537          	lui	a0,0xb
    1d70:	50350513          	addi	a0,a0,1283 # b503 <_end+0x6aff>
    1d74:	55656593          	ori	a1,a0,1366
    1d78:	70b22623          	sw	a1,1804(tp) # 70c <inst_91+0x8>

00001d7c <inst_474>:
    1d7c:	0000b537          	lui	a0,0xb
    1d80:	50350513          	addi	a0,a0,1283 # b503 <_end+0x6aff>
    1d84:	aab56593          	ori	a1,a0,-1365
    1d88:	70b22823          	sw	a1,1808(tp) # 710 <inst_92>

00001d8c <inst_475>:
    1d8c:	0000b537          	lui	a0,0xb
    1d90:	50350513          	addi	a0,a0,1283 # b503 <_end+0x6aff>
    1d94:	00656593          	ori	a1,a0,6
    1d98:	70b22a23          	sw	a1,1812(tp) # 714 <inst_92+0x4>

00001d9c <inst_476>:
    1d9c:	0000b537          	lui	a0,0xb
    1da0:	50350513          	addi	a0,a0,1283 # b503 <_end+0x6aff>
    1da4:	33456593          	ori	a1,a0,820
    1da8:	70b22c23          	sw	a1,1816(tp) # 718 <inst_92+0x8>

00001dac <inst_477>:
    1dac:	0000b537          	lui	a0,0xb
    1db0:	50350513          	addi	a0,a0,1283 # b503 <_end+0x6aff>
    1db4:	66756593          	ori	a1,a0,1639
    1db8:	70b22e23          	sw	a1,1820(tp) # 71c <inst_93>

00001dbc <inst_478>:
    1dbc:	0000b537          	lui	a0,0xb
    1dc0:	50350513          	addi	a0,a0,1283 # b503 <_end+0x6aff>
    1dc4:	fd456593          	ori	a1,a0,-44
    1dc8:	72b22023          	sw	a1,1824(tp) # 720 <inst_93+0x4>

00001dcc <inst_479>:
    1dcc:	0000b537          	lui	a0,0xb
    1dd0:	50350513          	addi	a0,a0,1283 # b503 <_end+0x6aff>
    1dd4:	02e56593          	ori	a1,a0,46
    1dd8:	72b22223          	sw	a1,1828(tp) # 724 <inst_93+0x8>

00001ddc <inst_480>:
    1ddc:	55555537          	lui	a0,0x55555
    1de0:	55650513          	addi	a0,a0,1366 # 55555556 <_end+0x55550b52>
    1de4:	00356593          	ori	a1,a0,3
    1de8:	72b22423          	sw	a1,1832(tp) # 728 <inst_94>

00001dec <inst_481>:
    1dec:	55555537          	lui	a0,0x55555
    1df0:	55650513          	addi	a0,a0,1366 # 55555556 <_end+0x55550b52>
    1df4:	55556593          	ori	a1,a0,1365
    1df8:	72b22623          	sw	a1,1836(tp) # 72c <inst_94+0x4>

00001dfc <inst_482>:
    1dfc:	55555537          	lui	a0,0x55555
    1e00:	55650513          	addi	a0,a0,1366 # 55555556 <_end+0x55550b52>
    1e04:	aaa56593          	ori	a1,a0,-1366
    1e08:	72b22823          	sw	a1,1840(tp) # 730 <inst_94+0x8>

00001e0c <inst_483>:
    1e0c:	55555537          	lui	a0,0x55555
    1e10:	55650513          	addi	a0,a0,1366 # 55555556 <_end+0x55550b52>
    1e14:	00556593          	ori	a1,a0,5
    1e18:	72b22a23          	sw	a1,1844(tp) # 734 <inst_95>

00001e1c <inst_484>:
    1e1c:	55555537          	lui	a0,0x55555
    1e20:	55650513          	addi	a0,a0,1366 # 55555556 <_end+0x55550b52>
    1e24:	33356593          	ori	a1,a0,819
    1e28:	72b22c23          	sw	a1,1848(tp) # 738 <inst_95+0x4>

00001e2c <inst_485>:
    1e2c:	55555537          	lui	a0,0x55555
    1e30:	55650513          	addi	a0,a0,1366 # 55555556 <_end+0x55550b52>
    1e34:	66656593          	ori	a1,a0,1638
    1e38:	72b22e23          	sw	a1,1852(tp) # 73c <inst_95+0x8>

00001e3c <inst_486>:
    1e3c:	55555537          	lui	a0,0x55555
    1e40:	55650513          	addi	a0,a0,1366 # 55555556 <_end+0x55550b52>
    1e44:	fd356593          	ori	a1,a0,-45
    1e48:	74b22023          	sw	a1,1856(tp) # 740 <inst_96>

00001e4c <inst_487>:
    1e4c:	55555537          	lui	a0,0x55555
    1e50:	55650513          	addi	a0,a0,1366 # 55555556 <_end+0x55550b52>
    1e54:	02d56593          	ori	a1,a0,45
    1e58:	74b22223          	sw	a1,1860(tp) # 744 <inst_96+0x4>

00001e5c <inst_488>:
    1e5c:	55555537          	lui	a0,0x55555
    1e60:	55650513          	addi	a0,a0,1366 # 55555556 <_end+0x55550b52>
    1e64:	00256593          	ori	a1,a0,2
    1e68:	74b22423          	sw	a1,1864(tp) # 748 <inst_96+0x8>

00001e6c <inst_489>:
    1e6c:	55555537          	lui	a0,0x55555
    1e70:	55650513          	addi	a0,a0,1366 # 55555556 <_end+0x55550b52>
    1e74:	55456593          	ori	a1,a0,1364
    1e78:	74b22623          	sw	a1,1868(tp) # 74c <inst_97>

00001e7c <inst_490>:
    1e7c:	55555537          	lui	a0,0x55555
    1e80:	55650513          	addi	a0,a0,1366 # 55555556 <_end+0x55550b52>
    1e84:	00056593          	ori	a1,a0,0
    1e88:	74b22823          	sw	a1,1872(tp) # 750 <inst_97+0x4>

00001e8c <inst_491>:
    1e8c:	55555537          	lui	a0,0x55555
    1e90:	55650513          	addi	a0,a0,1366 # 55555556 <_end+0x55550b52>
    1e94:	00456593          	ori	a1,a0,4
    1e98:	74b22a23          	sw	a1,1876(tp) # 754 <inst_97+0x8>

00001e9c <inst_492>:
    1e9c:	55555537          	lui	a0,0x55555
    1ea0:	55650513          	addi	a0,a0,1366 # 55555556 <_end+0x55550b52>
    1ea4:	33256593          	ori	a1,a0,818
    1ea8:	74b22c23          	sw	a1,1880(tp) # 758 <inst_98>

00001eac <inst_493>:
    1eac:	55555537          	lui	a0,0x55555
    1eb0:	55650513          	addi	a0,a0,1366 # 55555556 <_end+0x55550b52>
    1eb4:	66556593          	ori	a1,a0,1637
    1eb8:	74b22e23          	sw	a1,1884(tp) # 75c <inst_98+0x4>

00001ebc <inst_494>:
    1ebc:	55555537          	lui	a0,0x55555
    1ec0:	55650513          	addi	a0,a0,1366 # 55555556 <_end+0x55550b52>
    1ec4:	02c56593          	ori	a1,a0,44
    1ec8:	76b22023          	sw	a1,1888(tp) # 760 <inst_98+0x8>

00001ecc <inst_495>:
    1ecc:	55555537          	lui	a0,0x55555
    1ed0:	55650513          	addi	a0,a0,1366 # 55555556 <_end+0x55550b52>
    1ed4:	55656593          	ori	a1,a0,1366
    1ed8:	76b22223          	sw	a1,1892(tp) # 764 <inst_99>

00001edc <inst_496>:
    1edc:	55555537          	lui	a0,0x55555
    1ee0:	55650513          	addi	a0,a0,1366 # 55555556 <_end+0x55550b52>
    1ee4:	aab56593          	ori	a1,a0,-1365
    1ee8:	76b22423          	sw	a1,1896(tp) # 768 <inst_99+0x4>

00001eec <inst_497>:
    1eec:	55555537          	lui	a0,0x55555
    1ef0:	55650513          	addi	a0,a0,1366 # 55555556 <_end+0x55550b52>
    1ef4:	00656593          	ori	a1,a0,6
    1ef8:	76b22623          	sw	a1,1900(tp) # 76c <inst_99+0x8>

00001efc <inst_498>:
    1efc:	55555537          	lui	a0,0x55555
    1f00:	55650513          	addi	a0,a0,1366 # 55555556 <_end+0x55550b52>
    1f04:	33456593          	ori	a1,a0,820
    1f08:	76b22823          	sw	a1,1904(tp) # 770 <inst_99+0xc>

00001f0c <inst_499>:
    1f0c:	55555537          	lui	a0,0x55555
    1f10:	55650513          	addi	a0,a0,1366 # 55555556 <_end+0x55550b52>
    1f14:	66756593          	ori	a1,a0,1639
    1f18:	76b22a23          	sw	a1,1908(tp) # 774 <inst_100>

00001f1c <inst_500>:
    1f1c:	55555537          	lui	a0,0x55555
    1f20:	55650513          	addi	a0,a0,1366 # 55555556 <_end+0x55550b52>
    1f24:	fd456593          	ori	a1,a0,-44
    1f28:	76b22c23          	sw	a1,1912(tp) # 778 <inst_100+0x4>

00001f2c <inst_501>:
    1f2c:	55555537          	lui	a0,0x55555
    1f30:	55650513          	addi	a0,a0,1366 # 55555556 <_end+0x55550b52>
    1f34:	02e56593          	ori	a1,a0,46
    1f38:	76b22e23          	sw	a1,1916(tp) # 77c <inst_100+0x8>

00001f3c <inst_502>:
    1f3c:	aaaab537          	lui	a0,0xaaaab
    1f40:	aab50513          	addi	a0,a0,-1365 # aaaaaaab <_end+0xaaaa60a7>
    1f44:	00356593          	ori	a1,a0,3
    1f48:	78b22023          	sw	a1,1920(tp) # 780 <inst_100+0xc>

00001f4c <inst_503>:
    1f4c:	aaaab537          	lui	a0,0xaaaab
    1f50:	aab50513          	addi	a0,a0,-1365 # aaaaaaab <_end+0xaaaa60a7>
    1f54:	55556593          	ori	a1,a0,1365
    1f58:	78b22223          	sw	a1,1924(tp) # 784 <inst_101>

00001f5c <inst_504>:
    1f5c:	aaaab537          	lui	a0,0xaaaab
    1f60:	aab50513          	addi	a0,a0,-1365 # aaaaaaab <_end+0xaaaa60a7>
    1f64:	aaa56593          	ori	a1,a0,-1366
    1f68:	78b22423          	sw	a1,1928(tp) # 788 <inst_101+0x4>

00001f6c <inst_505>:
    1f6c:	aaaab537          	lui	a0,0xaaaab
    1f70:	aab50513          	addi	a0,a0,-1365 # aaaaaaab <_end+0xaaaa60a7>
    1f74:	00556593          	ori	a1,a0,5
    1f78:	78b22623          	sw	a1,1932(tp) # 78c <inst_101+0x8>

00001f7c <inst_506>:
    1f7c:	aaaab537          	lui	a0,0xaaaab
    1f80:	aab50513          	addi	a0,a0,-1365 # aaaaaaab <_end+0xaaaa60a7>
    1f84:	33356593          	ori	a1,a0,819
    1f88:	78b22823          	sw	a1,1936(tp) # 790 <inst_101+0xc>

00001f8c <inst_507>:
    1f8c:	aaaab537          	lui	a0,0xaaaab
    1f90:	aab50513          	addi	a0,a0,-1365 # aaaaaaab <_end+0xaaaa60a7>
    1f94:	66656593          	ori	a1,a0,1638
    1f98:	78b22a23          	sw	a1,1940(tp) # 794 <inst_102>

00001f9c <inst_508>:
    1f9c:	aaaab537          	lui	a0,0xaaaab
    1fa0:	aab50513          	addi	a0,a0,-1365 # aaaaaaab <_end+0xaaaa60a7>
    1fa4:	fd356593          	ori	a1,a0,-45
    1fa8:	78b22c23          	sw	a1,1944(tp) # 798 <inst_102+0x4>

00001fac <inst_509>:
    1fac:	aaaab537          	lui	a0,0xaaaab
    1fb0:	aab50513          	addi	a0,a0,-1365 # aaaaaaab <_end+0xaaaa60a7>
    1fb4:	02d56593          	ori	a1,a0,45
    1fb8:	78b22e23          	sw	a1,1948(tp) # 79c <inst_102+0x8>

00001fbc <inst_510>:
    1fbc:	aaaab537          	lui	a0,0xaaaab
    1fc0:	aab50513          	addi	a0,a0,-1365 # aaaaaaab <_end+0xaaaa60a7>
    1fc4:	00256593          	ori	a1,a0,2
    1fc8:	7ab22023          	sw	a1,1952(tp) # 7a0 <inst_102+0xc>

00001fcc <inst_511>:
    1fcc:	aaaab537          	lui	a0,0xaaaab
    1fd0:	aab50513          	addi	a0,a0,-1365 # aaaaaaab <_end+0xaaaa60a7>
    1fd4:	55456593          	ori	a1,a0,1364
    1fd8:	7ab22223          	sw	a1,1956(tp) # 7a4 <inst_103>

00001fdc <inst_512>:
    1fdc:	aaaab537          	lui	a0,0xaaaab
    1fe0:	aab50513          	addi	a0,a0,-1365 # aaaaaaab <_end+0xaaaa60a7>
    1fe4:	00056593          	ori	a1,a0,0
    1fe8:	7ab22423          	sw	a1,1960(tp) # 7a8 <inst_103+0x4>

00001fec <inst_513>:
    1fec:	aaaab537          	lui	a0,0xaaaab
    1ff0:	aab50513          	addi	a0,a0,-1365 # aaaaaaab <_end+0xaaaa60a7>
    1ff4:	00456593          	ori	a1,a0,4
    1ff8:	7ab22623          	sw	a1,1964(tp) # 7ac <inst_103+0x8>

00001ffc <inst_514>:
    1ffc:	aaaab537          	lui	a0,0xaaaab
    2000:	aab50513          	addi	a0,a0,-1365 # aaaaaaab <_end+0xaaaa60a7>
    2004:	33256593          	ori	a1,a0,818
    2008:	7ab22823          	sw	a1,1968(tp) # 7b0 <inst_103+0xc>

0000200c <inst_515>:
    200c:	aaaab537          	lui	a0,0xaaaab
    2010:	aab50513          	addi	a0,a0,-1365 # aaaaaaab <_end+0xaaaa60a7>
    2014:	66556593          	ori	a1,a0,1637
    2018:	7ab22a23          	sw	a1,1972(tp) # 7b4 <inst_104>

0000201c <inst_516>:
    201c:	aaaab537          	lui	a0,0xaaaab
    2020:	aab50513          	addi	a0,a0,-1365 # aaaaaaab <_end+0xaaaa60a7>
    2024:	02c56593          	ori	a1,a0,44
    2028:	7ab22c23          	sw	a1,1976(tp) # 7b8 <inst_104+0x4>

0000202c <inst_517>:
    202c:	aaaab537          	lui	a0,0xaaaab
    2030:	aab50513          	addi	a0,a0,-1365 # aaaaaaab <_end+0xaaaa60a7>
    2034:	55656593          	ori	a1,a0,1366
    2038:	7ab22e23          	sw	a1,1980(tp) # 7bc <inst_104+0x8>

0000203c <inst_518>:
    203c:	aaaab537          	lui	a0,0xaaaab
    2040:	aab50513          	addi	a0,a0,-1365 # aaaaaaab <_end+0xaaaa60a7>
    2044:	aab56593          	ori	a1,a0,-1365
    2048:	7cb22023          	sw	a1,1984(tp) # 7c0 <inst_104+0xc>

0000204c <inst_519>:
    204c:	aaaab537          	lui	a0,0xaaaab
    2050:	aab50513          	addi	a0,a0,-1365 # aaaaaaab <_end+0xaaaa60a7>
    2054:	00656593          	ori	a1,a0,6
    2058:	7cb22223          	sw	a1,1988(tp) # 7c4 <inst_105>

0000205c <inst_520>:
    205c:	aaaab537          	lui	a0,0xaaaab
    2060:	aab50513          	addi	a0,a0,-1365 # aaaaaaab <_end+0xaaaa60a7>
    2064:	33456593          	ori	a1,a0,820
    2068:	7cb22423          	sw	a1,1992(tp) # 7c8 <inst_105+0x4>

0000206c <inst_521>:
    206c:	aaaab537          	lui	a0,0xaaaab
    2070:	aab50513          	addi	a0,a0,-1365 # aaaaaaab <_end+0xaaaa60a7>
    2074:	66756593          	ori	a1,a0,1639
    2078:	7cb22623          	sw	a1,1996(tp) # 7cc <inst_105+0x8>

0000207c <inst_522>:
    207c:	aaaab537          	lui	a0,0xaaaab
    2080:	aab50513          	addi	a0,a0,-1365 # aaaaaaab <_end+0xaaaa60a7>
    2084:	fd456593          	ori	a1,a0,-44
    2088:	7cb22823          	sw	a1,2000(tp) # 7d0 <inst_105+0xc>

0000208c <inst_523>:
    208c:	aaaab537          	lui	a0,0xaaaab
    2090:	aab50513          	addi	a0,a0,-1365 # aaaaaaab <_end+0xaaaa60a7>
    2094:	02e56593          	ori	a1,a0,46
    2098:	7cb22a23          	sw	a1,2004(tp) # 7d4 <inst_106>

0000209c <inst_524>:
    209c:	00600513          	li	a0,6
    20a0:	00356593          	ori	a1,a0,3
    20a4:	7cb22c23          	sw	a1,2008(tp) # 7d8 <inst_106+0x4>

000020a8 <inst_525>:
    20a8:	00600513          	li	a0,6
    20ac:	55556593          	ori	a1,a0,1365
    20b0:	7cb22e23          	sw	a1,2012(tp) # 7dc <inst_106+0x8>

000020b4 <inst_526>:
    20b4:	00600513          	li	a0,6
    20b8:	aaa56593          	ori	a1,a0,-1366
    20bc:	7eb22023          	sw	a1,2016(tp) # 7e0 <inst_106+0xc>

000020c0 <inst_527>:
    20c0:	00600513          	li	a0,6
    20c4:	00556593          	ori	a1,a0,5
    20c8:	7eb22223          	sw	a1,2020(tp) # 7e4 <inst_107>

000020cc <inst_528>:
    20cc:	00600513          	li	a0,6
    20d0:	33356593          	ori	a1,a0,819
    20d4:	7eb22423          	sw	a1,2024(tp) # 7e8 <inst_107+0x4>

000020d8 <inst_529>:
    20d8:	00600513          	li	a0,6
    20dc:	66656593          	ori	a1,a0,1638
    20e0:	7eb22623          	sw	a1,2028(tp) # 7ec <inst_107+0x8>

000020e4 <inst_530>:
    20e4:	00600513          	li	a0,6
    20e8:	fd356593          	ori	a1,a0,-45
    20ec:	7eb22823          	sw	a1,2032(tp) # 7f0 <inst_107+0xc>

000020f0 <inst_531>:
    20f0:	00600513          	li	a0,6
    20f4:	02d56593          	ori	a1,a0,45
    20f8:	7eb22a23          	sw	a1,2036(tp) # 7f4 <inst_108>

000020fc <inst_532>:
    20fc:	00600513          	li	a0,6
    2100:	00256593          	ori	a1,a0,2
    2104:	7eb22c23          	sw	a1,2040(tp) # 7f8 <inst_108+0x4>

00002108 <inst_533>:
    2108:	00600513          	li	a0,6
    210c:	55456593          	ori	a1,a0,1364
    2110:	7eb22e23          	sw	a1,2044(tp) # 7fc <inst_108+0x8>
    2114:	00002217          	auipc	tp,0x2
    2118:	75420213          	addi	tp,tp,1876 # 4868 <signature_x4_1>

0000211c <inst_534>:
    211c:	00600513          	li	a0,6
    2120:	00056593          	ori	a1,a0,0
    2124:	00b22023          	sw	a1,0(tp) # 0 <_trap_start>

00002128 <inst_535>:
    2128:	00600513          	li	a0,6
    212c:	00456593          	ori	a1,a0,4
    2130:	00b22223          	sw	a1,4(tp) # 4 <_trap_start+0x4>

00002134 <inst_536>:
    2134:	00600513          	li	a0,6
    2138:	33256593          	ori	a1,a0,818
    213c:	00b22423          	sw	a1,8(tp) # 8 <_trap_start+0x8>

00002140 <inst_537>:
    2140:	00600513          	li	a0,6
    2144:	66556593          	ori	a1,a0,1637
    2148:	00b22623          	sw	a1,12(tp) # c <_trap_start+0xc>

0000214c <inst_538>:
    214c:	00600513          	li	a0,6
    2150:	02c56593          	ori	a1,a0,44
    2154:	00b22823          	sw	a1,16(tp) # 10 <_trap_start+0x10>

00002158 <inst_539>:
    2158:	00600513          	li	a0,6
    215c:	55656593          	ori	a1,a0,1366
    2160:	00b22a23          	sw	a1,20(tp) # 14 <_trap_start+0x14>

00002164 <inst_540>:
    2164:	00600513          	li	a0,6
    2168:	aab56593          	ori	a1,a0,-1365
    216c:	00b22c23          	sw	a1,24(tp) # 18 <_trap_start+0x18>

00002170 <inst_541>:
    2170:	00600513          	li	a0,6
    2174:	00656593          	ori	a1,a0,6
    2178:	00b22e23          	sw	a1,28(tp) # 1c <_trap_start+0x1c>

0000217c <inst_542>:
    217c:	00600513          	li	a0,6
    2180:	33456593          	ori	a1,a0,820
    2184:	02b22023          	sw	a1,32(tp) # 20 <_trap_start+0x20>

00002188 <inst_543>:
    2188:	00600513          	li	a0,6
    218c:	66756593          	ori	a1,a0,1639
    2190:	02b22223          	sw	a1,36(tp) # 24 <_trap_start+0x24>

00002194 <inst_544>:
    2194:	00600513          	li	a0,6
    2198:	fd456593          	ori	a1,a0,-44
    219c:	02b22423          	sw	a1,40(tp) # 28 <_trap_start+0x28>

000021a0 <inst_545>:
    21a0:	00600513          	li	a0,6
    21a4:	02e56593          	ori	a1,a0,46
    21a8:	02b22623          	sw	a1,44(tp) # 2c <_trap_start+0x2c>

000021ac <inst_546>:
    21ac:	33333537          	lui	a0,0x33333
    21b0:	33450513          	addi	a0,a0,820 # 33333334 <_end+0x3332e930>
    21b4:	00356593          	ori	a1,a0,3
    21b8:	02b22823          	sw	a1,48(tp) # 30 <_trap_start+0x30>

000021bc <inst_547>:
    21bc:	33333537          	lui	a0,0x33333
    21c0:	33450513          	addi	a0,a0,820 # 33333334 <_end+0x3332e930>
    21c4:	55556593          	ori	a1,a0,1365
    21c8:	02b22a23          	sw	a1,52(tp) # 34 <_trap_exception>

000021cc <inst_548>:
    21cc:	33333537          	lui	a0,0x33333
    21d0:	33450513          	addi	a0,a0,820 # 33333334 <_end+0x3332e930>
    21d4:	aaa56593          	ori	a1,a0,-1366
    21d8:	02b22c23          	sw	a1,56(tp) # 38 <_trap_exception+0x4>

000021dc <inst_549>:
    21dc:	33333537          	lui	a0,0x33333
    21e0:	33450513          	addi	a0,a0,820 # 33333334 <_end+0x3332e930>
    21e4:	00556593          	ori	a1,a0,5
    21e8:	02b22e23          	sw	a1,60(tp) # 3c <_trap_exception+0x8>

000021ec <inst_550>:
    21ec:	33333537          	lui	a0,0x33333
    21f0:	33450513          	addi	a0,a0,820 # 33333334 <_end+0x3332e930>
    21f4:	33356593          	ori	a1,a0,819
    21f8:	04b22023          	sw	a1,64(tp) # 40 <_trap_exception+0xc>

000021fc <inst_551>:
    21fc:	33333537          	lui	a0,0x33333
    2200:	33450513          	addi	a0,a0,820 # 33333334 <_end+0x3332e930>
    2204:	66656593          	ori	a1,a0,1638
    2208:	04b22223          	sw	a1,68(tp) # 44 <_trap_exception+0x10>

0000220c <inst_552>:
    220c:	33333537          	lui	a0,0x33333
    2210:	33450513          	addi	a0,a0,820 # 33333334 <_end+0x3332e930>
    2214:	fd356593          	ori	a1,a0,-45
    2218:	04b22423          	sw	a1,72(tp) # 48 <_trap_exception+0x14>

0000221c <inst_553>:
    221c:	33333537          	lui	a0,0x33333
    2220:	33450513          	addi	a0,a0,820 # 33333334 <_end+0x3332e930>
    2224:	02d56593          	ori	a1,a0,45
    2228:	04b22623          	sw	a1,76(tp) # 4c <_trap_exception+0x18>

0000222c <inst_554>:
    222c:	33333537          	lui	a0,0x33333
    2230:	33450513          	addi	a0,a0,820 # 33333334 <_end+0x3332e930>
    2234:	00256593          	ori	a1,a0,2
    2238:	04b22823          	sw	a1,80(tp) # 50 <_trap_exception+0x1c>

0000223c <inst_555>:
    223c:	33333537          	lui	a0,0x33333
    2240:	33450513          	addi	a0,a0,820 # 33333334 <_end+0x3332e930>
    2244:	55456593          	ori	a1,a0,1364
    2248:	04b22a23          	sw	a1,84(tp) # 54 <_trap_exception+0x20>

0000224c <inst_556>:
    224c:	33333537          	lui	a0,0x33333
    2250:	33450513          	addi	a0,a0,820 # 33333334 <_end+0x3332e930>
    2254:	00056593          	ori	a1,a0,0
    2258:	04b22c23          	sw	a1,88(tp) # 58 <_int_exc>

0000225c <inst_557>:
    225c:	33333537          	lui	a0,0x33333
    2260:	33450513          	addi	a0,a0,820 # 33333334 <_end+0x3332e930>
    2264:	00456593          	ori	a1,a0,4
    2268:	04b22e23          	sw	a1,92(tp) # 5c <_int_exc+0x4>

0000226c <inst_558>:
    226c:	c0000537          	lui	a0,0xc0000
    2270:	fff50513          	addi	a0,a0,-1 # bfffffff <_end+0xbfffb5fb>
    2274:	40056593          	ori	a1,a0,1024
    2278:	06b22023          	sw	a1,96(tp) # 60 <_int_exc+0x8>

0000227c <inst_559>:
    227c:	ffffc537          	lui	a0,0xffffc
    2280:	fff50513          	addi	a0,a0,-1 # ffffbfff <_end+0xffff75fb>
    2284:	fef56593          	ori	a1,a0,-17
    2288:	06b22223          	sw	a1,100(tp) # 64 <_int_exc+0xc>
    228c:	00000013          	nop

00002290 <rvtest_code_end>:
    2290:	00002297          	auipc	t0,0x2
    2294:	d8028293          	addi	t0,t0,-640 # 4010 <begin_signature>
    2298:	00020337          	lui	t1,0x20
    229c:	00430313          	addi	t1,t1,4 # 20004 <_end+0x1b600>
    22a0:	00532023          	sw	t0,0(t1)
    22a4:	00002297          	auipc	t0,0x2
    22a8:	62c28293          	addi	t0,t0,1580 # 48d0 <end_signature>
    22ac:	00020337          	lui	t1,0x20
    22b0:	00830313          	addi	t1,t1,8 # 20008 <_end+0x1b604>
    22b4:	00532023          	sw	t0,0(t1)
    22b8:	00100293          	li	t0,1
    22bc:	00020337          	lui	t1,0x20
    22c0:	00532023          	sw	t0,0(t1) # 20000 <_end+0x1b5fc>
    22c4:	0ff0000f          	fence
    22c8:	00100193          	li	gp,1
    22cc:	00000073          	ecall
	...

Disassembly of section .tohost:

00003000 <tohost>:
	...

00003100 <fromhost>:
	...
