
/home/edabk2003/TranQuangHuyK66/DigitalDesign/FinalExam/ibex-reference/dv/riscv_compliance/riscv-compliance/work/rv32i_m/I/sltu-01.elf:     file format elf32-littleriscv


Disassembly of section .text.trap:

00000000 <_trap_start>:
   0:	0340006f          	j	34 <_trap_exception>
   4:	0540006f          	j	58 <_int_exc>
   8:	0500006f          	j	58 <_int_exc>
   c:	04c0006f          	j	58 <_int_exc>
  10:	0480006f          	j	58 <_int_exc>
  14:	0440006f          	j	58 <_int_exc>
  18:	0400006f          	j	58 <_int_exc>
  1c:	03c0006f          	j	58 <_int_exc>
  20:	0380006f          	j	58 <_int_exc>
  24:	0340006f          	j	58 <_int_exc>
  28:	0300006f          	j	58 <_int_exc>
  2c:	02c0006f          	j	58 <_int_exc>
  30:	0280006f          	j	58 <_int_exc>

00000034 <_trap_exception>:
  34:	34202573          	csrr	a0,mcause
  38:	00b00593          	li	a1,11
  3c:	00b50863          	beq	a0,a1,4c <_trap_exception+0x18>
  40:	00005597          	auipc	a1,0x5
  44:	fd058593          	addi	a1,a1,-48 # 5010 <begin_signature>
  48:	00a5a023          	sw	a0,0(a1)
  4c:	00000517          	auipc	a0,0x0
  50:	07050513          	addi	a0,a0,112 # bc <write_tohost>
  54:	00050067          	jr	a0

00000058 <_int_exc>:
  58:	00000517          	auipc	a0,0x0
  5c:	06450513          	addi	a0,a0,100 # bc <write_tohost>
  60:	00050067          	jr	a0

Disassembly of section .text.init:

00000080 <_start>:
      80:	0480006f          	j	c8 <reset_vector>

00000084 <trap_vector>:
      84:	34202f73          	csrr	t5,mcause
      88:	00800f93          	li	t6,8
      8c:	03ff0863          	beq	t5,t6,bc <write_tohost>
      90:	00900f93          	li	t6,9
      94:	03ff0463          	beq	t5,t6,bc <write_tohost>
      98:	00b00f93          	li	t6,11
      9c:	03ff0063          	beq	t5,t6,bc <write_tohost>
      a0:	00000f13          	li	t5,0
      a4:	000f0463          	beqz	t5,ac <trap_vector+0x28>
      a8:	000f0067          	jr	t5
      ac:	34202f73          	csrr	t5,mcause
      b0:	000f5463          	bgez	t5,b8 <handle_exception>
      b4:	0040006f          	j	b8 <handle_exception>

000000b8 <handle_exception>:
      b8:	5391e193          	ori	gp,gp,1337

000000bc <write_tohost>:
      bc:	00004f17          	auipc	t5,0x4
      c0:	f43f2223          	sw	gp,-188(t5) # 4000 <tohost>
      c4:	ff9ff06f          	j	bc <write_tohost>

000000c8 <reset_vector>:
      c8:	f1402573          	csrr	a0,mhartid
      cc:	00051063          	bnez	a0,cc <reset_vector+0x4>
      d0:	00000193          	li	gp,0
      d4:	00000297          	auipc	t0,0x0
      d8:	fb028293          	addi	t0,t0,-80 # 84 <trap_vector>
      dc:	30529073          	csrw	mtvec,t0
      e0:	00100513          	li	a0,1
      e4:	01f51513          	slli	a0,a0,0x1f
      e8:	00054863          	bltz	a0,f8 <reset_vector+0x30>
      ec:	0ff0000f          	fence
      f0:	00100193          	li	gp,1
      f4:	00000073          	ecall
      f8:	00000293          	li	t0,0
      fc:	00028e63          	beqz	t0,118 <reset_vector+0x50>
     100:	10529073          	csrw	stvec,t0
     104:	0000b2b7          	lui	t0,0xb
     108:	10928293          	addi	t0,t0,265 # b109 <_end+0x5405>
     10c:	30229073          	csrw	medeleg,t0
     110:	30202373          	csrr	t1,medeleg
     114:	fa6292e3          	bne	t0,t1,b8 <handle_exception>
     118:	30005073          	csrwi	mstatus,0
     11c:	00002537          	lui	a0,0x2
     120:	80050513          	addi	a0,a0,-2048 # 1800 <inst_270+0x4>
     124:	30052073          	csrs	mstatus,a0
     128:	00000297          	auipc	t0,0x0
     12c:	01428293          	addi	t0,t0,20 # 13c <begin_testcode>
     130:	34129073          	csrw	mepc,t0
     134:	f1402573          	csrr	a0,mhartid
     138:	30200073          	mret

0000013c <begin_testcode>:
     13c:	00000013          	nop

00000140 <rvtest_init>:
     140:	feedc0b7          	lui	ra,0xfeedc
     144:	ead08093          	addi	ra,ra,-339 # feedbead <_end+0xfeed61a9>
     148:	ff76e137          	lui	sp,0xff76e
     14c:	f5610113          	addi	sp,sp,-170 # ff76df56 <_end+0xff768252>
     150:	7fbb71b7          	lui	gp,0x7fbb7
     154:	fab18193          	addi	gp,gp,-85 # 7fbb6fab <_end+0x7fbb12a7>
     158:	bfddb237          	lui	tp,0xbfddb
     15c:	7d520213          	addi	tp,tp,2005 # bfddb7d5 <_end+0xbfdd5ad1>
     160:	00000297          	auipc	t0,0x0
     164:	0d828293          	addi	t0,t0,216 # 238 <rvtest_code_begin>
     168:	00005317          	auipc	t1,0x5
     16c:	e9830313          	addi	t1,t1,-360 # 5000 <rvtest_data_begin>
     170:	b7fbb3b7          	lui	t2,0xb7fbb
     174:	6fa38393          	addi	t2,t2,1786 # b7fbb6fa <_end+0xb7fb59f6>
     178:	5bfde437          	lui	s0,0x5bfde
     17c:	b7d40413          	addi	s0,s0,-1155 # 5bfddb7d <_end+0x5bfd7e79>
     180:	adfef4b7          	lui	s1,0xadfef
     184:	dbe48493          	addi	s1,s1,-578 # adfeedbe <_end+0xadfe90ba>
     188:	56ff7537          	lui	a0,0x56ff7
     18c:	6df50513          	addi	a0,a0,1759 # 56ff76df <_end+0x56ff19db>
     190:	ab7fc5b7          	lui	a1,0xab7fc
     194:	b6f58593          	addi	a1,a1,-1169 # ab7fbb6f <_end+0xab7f5e6b>
     198:	d5bfe637          	lui	a2,0xd5bfe
     19c:	db760613          	addi	a2,a2,-585 # d5bfddb7 <_end+0xd5bf80b3>
     1a0:	eadff6b7          	lui	a3,0xeadff
     1a4:	edb68693          	addi	a3,a3,-293 # eadfeedb <_end+0xeadf91d7>
     1a8:	f56ff737          	lui	a4,0xf56ff
     1ac:	76d70713          	addi	a4,a4,1901 # f56ff76d <_end+0xf56f9a69>
     1b0:	fab807b7          	lui	a5,0xfab80
     1b4:	bb678793          	addi	a5,a5,-1098 # fab7fbb6 <_end+0xfab79eb2>
     1b8:	7d5c0837          	lui	a6,0x7d5c0
     1bc:	ddb80813          	addi	a6,a6,-549 # 7d5bfddb <_end+0x7d5ba0d7>
     1c0:	beae08b7          	lui	a7,0xbeae0
     1c4:	eed88893          	addi	a7,a7,-275 # beadfeed <_end+0xbeada1e9>
     1c8:	df570937          	lui	s2,0xdf570
     1cc:	f7690913          	addi	s2,s2,-138 # df56ff76 <_end+0xdf56a272>
     1d0:	6fab89b7          	lui	s3,0x6fab8
     1d4:	fbb98993          	addi	s3,s3,-69 # 6fab7fbb <_end+0x6fab22b7>
     1d8:	b7d5ca37          	lui	s4,0xb7d5c
     1dc:	fdda0a13          	addi	s4,s4,-35 # b7d5bfdd <_end+0xb7d562d9>
     1e0:	dbeaeab7          	lui	s5,0xdbeae
     1e4:	feea8a93          	addi	s5,s5,-18 # dbeadfee <_end+0xdbea82ea>
     1e8:	6df57b37          	lui	s6,0x6df57
     1ec:	ff7b0b13          	addi	s6,s6,-9 # 6df56ff7 <_end+0x6df512f3>
     1f0:	b6fabbb7          	lui	s7,0xb6fab
     1f4:	7fbb8b93          	addi	s7,s7,2043 # b6fab7fb <_end+0xb6fa5af7>
     1f8:	db7d6c37          	lui	s8,0xdb7d6
     1fc:	bfdc0c13          	addi	s8,s8,-1027 # db7d5bfd <_end+0xdb7cfef9>
     200:	edbebcb7          	lui	s9,0xedbeb
     204:	dfec8c93          	addi	s9,s9,-514 # edbeadfe <_end+0xedbe50fa>
     208:	76df5d37          	lui	s10,0x76df5
     20c:	6ffd0d13          	addi	s10,s10,1791 # 76df56ff <_end+0x76def9fb>
     210:	bb6fbdb7          	lui	s11,0xbb6fb
     214:	b7fd8d93          	addi	s11,s11,-1153 # bb6fab7f <_end+0xbb6f4e7b>
     218:	ddb7de37          	lui	t3,0xddb7d
     21c:	5bfe0e13          	addi	t3,t3,1471 # ddb7d5bf <_end+0xddb778bb>
     220:	eedbfeb7          	lui	t4,0xeedbf
     224:	adfe8e93          	addi	t4,t4,-1313 # eedbeadf <_end+0xeedb8ddb>
     228:	f76dff37          	lui	t5,0xf76df
     22c:	56ff0f13          	addi	t5,t5,1391 # f76df56f <_end+0xf76d986b>
     230:	fbb70fb7          	lui	t6,0xfbb70
     234:	ab7f8f93          	addi	t6,t6,-1353 # fbb6fab7 <_end+0xfbb69db3>

00000238 <rvtest_code_begin>:
     238:	00005497          	auipc	s1,0x5
     23c:	dd848493          	addi	s1,s1,-552 # 5010 <begin_signature>

00000240 <inst_0>:
     240:	00000013          	nop
     244:	ffe00f93          	li	t6,-2
     248:	01f03fb3          	snez	t6,t6
     24c:	01f4a023          	sw	t6,0(s1)

00000250 <inst_1>:
     250:	001009b7          	lui	s3,0x100
     254:	001009b7          	lui	s3,0x100
     258:	0139b2b3          	sltu	t0,s3,s3
     25c:	0054a223          	sw	t0,4(s1)

00000260 <inst_2>:
     260:	40000cb7          	lui	s9,0x40000
     264:	40000cb7          	lui	s9,0x40000
     268:	019cbcb3          	sltu	s9,s9,s9
     26c:	0194a423          	sw	s9,8(s1)

00000270 <inst_3>:
     270:	ffe00713          	li	a4,-2
     274:	fff00c13          	li	s8,-1
     278:	01873733          	sltu	a4,a4,s8
     27c:	00e4a623          	sw	a4,12(s1)

00000280 <inst_4>:
     280:	00100893          	li	a7,1
     284:	00100693          	li	a3,1
     288:	00d8b633          	sltu	a2,a7,a3
     28c:	00c4a823          	sw	a2,16(s1)

00000290 <inst_5>:
     290:	00000d13          	li	s10,0
     294:	00b00913          	li	s2,11
     298:	012d3c33          	sltu	s8,s10,s2
     29c:	0184aa23          	sw	s8,20(s1)

000002a0 <inst_6>:
     2a0:	fff00293          	li	t0,-1
     2a4:	00000713          	li	a4,0
     2a8:	00e2b9b3          	sltu	s3,t0,a4
     2ac:	0134ac23          	sw	s3,24(s1)

000002b0 <inst_7>:
     2b0:	00400193          	li	gp,4
     2b4:	00200b13          	li	s6,2
     2b8:	0161b033          	sltu	zero,gp,s6
     2bc:	0004ae23          	sw	zero,28(s1)

000002c0 <inst_8>:
     2c0:	f8000bb7          	lui	s7,0xf8000
     2c4:	fffb8b93          	addi	s7,s7,-1 # f7ffffff <_end+0xf7ffa2fb>
     2c8:	00400e93          	li	t4,4
     2cc:	01dbba33          	sltu	s4,s7,t4
     2d0:	0344a023          	sw	s4,32(s1)

000002d4 <inst_9>:
     2d4:	01100213          	li	tp,17
     2d8:	00800313          	li	t1,8
     2dc:	00623533          	sltu	a0,tp,t1
     2e0:	02a4a223          	sw	a0,36(s1)

000002e4 <inst_10>:
     2e4:	80000637          	lui	a2,0x80000
     2e8:	fff60613          	addi	a2,a2,-1 # 7fffffff <_end+0x7fffa2fb>
     2ec:	01000893          	li	a7,16
     2f0:	011630b3          	sltu	ra,a2,a7
     2f4:	0214a423          	sw	ra,40(s1)

000002f8 <inst_11>:
     2f8:	02000f37          	lui	t5,0x2000
     2fc:	02000413          	li	s0,32
     300:	008f3333          	sltu	t1,t5,s0
     304:	0264a623          	sw	t1,44(s1)

00000308 <inst_12>:
     308:	fffffab7          	lui	s5,0xfffff
     30c:	7ffa8a93          	addi	s5,s5,2047 # fffff7ff <_end+0xffff9afb>
     310:	04000813          	li	a6,64
     314:	010ab1b3          	sltu	gp,s5,a6
     318:	0234a823          	sw	gp,48(s1)

0000031c <inst_13>:
     31c:	40000e93          	li	t4,1024
     320:	08000d13          	li	s10,128
     324:	01aeb8b3          	sltu	a7,t4,s10
     328:	0314aa23          	sw	a7,52(s1)

0000032c <inst_14>:
     32c:	00d00913          	li	s2,13
     330:	10000513          	li	a0,256
     334:	00a93e33          	sltu	t3,s2,a0
     338:	03c4ac23          	sw	t3,56(s1)

0000033c <inst_15>:
     33c:	00400113          	li	sp,4
     340:	20000e13          	li	t3,512
     344:	01c135b3          	sltu	a1,sp,t3
     348:	02b4ae23          	sw	a1,60(s1)

0000034c <inst_16>:
     34c:	fbf00413          	li	s0,-65
     350:	40000f13          	li	t5,1024
     354:	01e43eb3          	sltu	t4,s0,t5
     358:	05d4a023          	sw	t4,64(s1)

0000035c <inst_17>:
     35c:	08000b13          	li	s6,128
     360:	000015b7          	lui	a1,0x1
     364:	80058593          	addi	a1,a1,-2048 # 800 <inst_79>
     368:	00bb33b3          	sltu	t2,s6,a1
     36c:	0474a223          	sw	t2,68(s1)
     370:	00005717          	auipc	a4,0x5
     374:	ce870713          	addi	a4,a4,-792 # 5058 <signature_x14_0>

00000378 <inst_18>:
     378:	002007b7          	lui	a5,0x200
     37c:	00001237          	lui	tp,0x1
     380:	0047b4b3          	sltu	s1,a5,tp
     384:	00972023          	sw	s1,0(a4)

00000388 <inst_19>:
     388:	08000e13          	li	t3,128
     38c:	00002637          	lui	a2,0x2
     390:	00ce36b3          	sltu	a3,t3,a2
     394:	00d72223          	sw	a3,4(a4)

00000398 <inst_20>:
     398:	00800fb7          	lui	t6,0x800
     39c:	00004a37          	lui	s4,0x4
     3a0:	014fbd33          	sltu	s10,t6,s4
     3a4:	01a72423          	sw	s10,8(a4)

000003a8 <inst_21>:
     3a8:	00008db7          	lui	s11,0x8
     3ac:	000082b7          	lui	t0,0x8
     3b0:	005db833          	sltu	a6,s11,t0
     3b4:	01072623          	sw	a6,12(a4)

000003b8 <inst_22>:
     3b8:	e0000837          	lui	a6,0xe0000
     3bc:	fff80813          	addi	a6,a6,-1 # dfffffff <_end+0xdfffa2fb>
     3c0:	00000013          	nop
     3c4:	00083133          	sltu	sp,a6,zero
     3c8:	00272823          	sw	sp,16(a4)

000003cc <inst_23>:
     3cc:	00300593          	li	a1,3
     3d0:	000204b7          	lui	s1,0x20
     3d4:	0095bbb3          	sltu	s7,a1,s1
     3d8:	01772a23          	sw	s7,20(a4)

000003dc <inst_24>:
     3dc:	80000a37          	lui	s4,0x80000
     3e0:	00040ab7          	lui	s5,0x40
     3e4:	015a3233          	sltu	tp,s4,s5
     3e8:	00472c23          	sw	tp,24(a4)

000003ec <inst_25>:
     3ec:	200006b7          	lui	a3,0x20000
     3f0:	000803b7          	lui	t2,0x80
     3f4:	0076bdb3          	sltu	s11,a3,t2
     3f8:	01b72e23          	sw	s11,28(a4)

000003fc <inst_26>:
     3fc:	00800393          	li	t2,8
     400:	002000b7          	lui	ra,0x200
     404:	0013b933          	sltu	s2,t2,ra
     408:	03272023          	sw	s2,32(a4)

0000040c <inst_27>:
     40c:	fff000b7          	lui	ra,0xfff00
     410:	fff08093          	addi	ra,ra,-1 # ffefffff <_end+0xffefa2fb>
     414:	00400db7          	lui	s11,0x400
     418:	01b0bb33          	sltu	s6,ra,s11
     41c:	03672223          	sw	s6,36(a4)

00000420 <inst_28>:
     420:	aaaab4b7          	lui	s1,0xaaaab
     424:	aaa48493          	addi	s1,s1,-1366 # aaaaaaaa <_end+0xaaaa4da6>
     428:	00800bb7          	lui	s7,0x800
     42c:	0174bab3          	sltu	s5,s1,s7
     430:	03572423          	sw	s5,40(a4)

00000434 <inst_29>:
     434:	66666337          	lui	t1,0x66666
     438:	66730313          	addi	t1,t1,1639 # 66666667 <_end+0x66660963>
     43c:	01000137          	lui	sp,0x1000
     440:	00233f33          	sltu	t5,t1,sp
     444:	03e72623          	sw	t5,44(a4)

00000448 <inst_30>:
     448:	fc000537          	lui	a0,0xfc000
     44c:	fff50513          	addi	a0,a0,-1 # fbffffff <_end+0xfbffa2fb>
     450:	020001b7          	lui	gp,0x2000
     454:	003537b3          	sltu	a5,a0,gp
     458:	02f72823          	sw	a5,48(a4)

0000045c <inst_31>:
     45c:	10000c13          	li	s8,256
     460:	040007b7          	lui	a5,0x4000
     464:	00fc3433          	sltu	s0,s8,a5
     468:	02872a23          	sw	s0,52(a4)

0000046c <inst_32>:
     46c:	ffffe537          	lui	a0,0xffffe
     470:	fff50513          	addi	a0,a0,-1 # ffffdfff <_end+0xffff82fb>
     474:	080005b7          	lui	a1,0x8000
     478:	00b53633          	sltu	a2,a0,a1
     47c:	02c72c23          	sw	a2,56(a4)

00000480 <inst_33>:
     480:	40000537          	lui	a0,0x40000
     484:	100005b7          	lui	a1,0x10000
     488:	00b53633          	sltu	a2,a0,a1
     48c:	02c72e23          	sw	a2,60(a4)

00000490 <inst_34>:
     490:	ff000537          	lui	a0,0xff000
     494:	fff50513          	addi	a0,a0,-1 # feffffff <_end+0xfeffa2fb>
     498:	200005b7          	lui	a1,0x20000
     49c:	00b53633          	sltu	a2,a0,a1
     4a0:	04c72023          	sw	a2,64(a4)

000004a4 <inst_35>:
     4a4:	10000537          	lui	a0,0x10000
     4a8:	400005b7          	lui	a1,0x40000
     4ac:	00b53633          	sltu	a2,a0,a1
     4b0:	04c72223          	sw	a2,68(a4)

000004b4 <inst_36>:
     4b4:	40000537          	lui	a0,0x40000
     4b8:	800005b7          	lui	a1,0x80000
     4bc:	00b53633          	sltu	a2,a0,a1
     4c0:	04c72423          	sw	a2,72(a4)

000004c4 <inst_37>:
     4c4:	33333537          	lui	a0,0x33333
     4c8:	33350513          	addi	a0,a0,819 # 33333333 <_end+0x3332d62f>
     4cc:	ffd00593          	li	a1,-3
     4d0:	00b53633          	sltu	a2,a0,a1
     4d4:	04c72623          	sw	a2,76(a4)

000004d8 <inst_38>:
     4d8:	00040537          	lui	a0,0x40
     4dc:	ffb00593          	li	a1,-5
     4e0:	00b53633          	sltu	a2,a0,a1
     4e4:	04c72823          	sw	a2,80(a4)

000004e8 <inst_39>:
     4e8:	66666537          	lui	a0,0x66666
     4ec:	66650513          	addi	a0,a0,1638 # 66666666 <_end+0x66660962>
     4f0:	ff700593          	li	a1,-9
     4f4:	00b53633          	sltu	a2,a0,a1
     4f8:	04c72a23          	sw	a2,84(a4)

000004fc <inst_40>:
     4fc:	00300513          	li	a0,3
     500:	fef00593          	li	a1,-17
     504:	00b53633          	sltu	a2,a0,a1
     508:	04c72c23          	sw	a2,88(a4)

0000050c <inst_41>:
     50c:	00b00513          	li	a0,11
     510:	fdf00593          	li	a1,-33
     514:	00b53633          	sltu	a2,a0,a1
     518:	04c72e23          	sw	a2,92(a4)

0000051c <inst_42>:
     51c:	00a00513          	li	a0,10
     520:	fbf00593          	li	a1,-65
     524:	00b53633          	sltu	a2,a0,a1
     528:	06c72023          	sw	a2,96(a4)

0000052c <inst_43>:
     52c:	08000513          	li	a0,128
     530:	f7f00593          	li	a1,-129
     534:	00b53633          	sltu	a2,a0,a1
     538:	06c72223          	sw	a2,100(a4)

0000053c <inst_44>:
     53c:	ff700513          	li	a0,-9
     540:	eff00593          	li	a1,-257
     544:	00b53633          	sltu	a2,a0,a1
     548:	06c72423          	sw	a2,104(a4)

0000054c <inst_45>:
     54c:	01000537          	lui	a0,0x1000
     550:	dff00593          	li	a1,-513
     554:	00b53633          	sltu	a2,a0,a1
     558:	06c72623          	sw	a2,108(a4)

0000055c <inst_46>:
     55c:	ff700513          	li	a0,-9
     560:	bff00593          	li	a1,-1025
     564:	00b53633          	sltu	a2,a0,a1
     568:	06c72823          	sw	a2,112(a4)

0000056c <inst_47>:
     56c:	00002537          	lui	a0,0x2
     570:	fffff5b7          	lui	a1,0xfffff
     574:	7ff58593          	addi	a1,a1,2047 # fffff7ff <_end+0xffff9afb>
     578:	00b53633          	sltu	a2,a0,a1
     57c:	06c72a23          	sw	a2,116(a4)

00000580 <inst_48>:
     580:	fff80537          	lui	a0,0xfff80
     584:	fff50513          	addi	a0,a0,-1 # fff7ffff <_end+0xfff7a2fb>
     588:	fffff5b7          	lui	a1,0xfffff
     58c:	fff58593          	addi	a1,a1,-1 # ffffefff <_end+0xffff92fb>
     590:	00b53633          	sltu	a2,a0,a1
     594:	06c72c23          	sw	a2,120(a4)

00000598 <inst_49>:
     598:	00500513          	li	a0,5
     59c:	ffffe5b7          	lui	a1,0xffffe
     5a0:	fff58593          	addi	a1,a1,-1 # ffffdfff <_end+0xffff82fb>
     5a4:	00b53633          	sltu	a2,a0,a1
     5a8:	06c72e23          	sw	a2,124(a4)

000005ac <inst_50>:
     5ac:	00010537          	lui	a0,0x10
     5b0:	ffe50513          	addi	a0,a0,-2 # fffe <_end+0xa2fa>
     5b4:	ffffc5b7          	lui	a1,0xffffc
     5b8:	fff58593          	addi	a1,a1,-1 # ffffbfff <_end+0xffff62fb>
     5bc:	00b53633          	sltu	a2,a0,a1
     5c0:	08c72023          	sw	a2,128(a4)

000005c4 <inst_51>:
     5c4:	fffe0537          	lui	a0,0xfffe0
     5c8:	fff50513          	addi	a0,a0,-1 # fffdffff <_end+0xfffda2fb>
     5cc:	ffff85b7          	lui	a1,0xffff8
     5d0:	fff58593          	addi	a1,a1,-1 # ffff7fff <_end+0xffff22fb>
     5d4:	00b53633          	sltu	a2,a0,a1
     5d8:	08c72223          	sw	a2,132(a4)

000005dc <inst_52>:
     5dc:	00a00513          	li	a0,10
     5e0:	ffff05b7          	lui	a1,0xffff0
     5e4:	fff58593          	addi	a1,a1,-1 # fffeffff <_end+0xfffea2fb>
     5e8:	00b53633          	sltu	a2,a0,a1
     5ec:	08c72423          	sw	a2,136(a4)

000005f0 <inst_53>:
     5f0:	fff80537          	lui	a0,0xfff80
     5f4:	fff50513          	addi	a0,a0,-1 # fff7ffff <_end+0xfff7a2fb>
     5f8:	fffe05b7          	lui	a1,0xfffe0
     5fc:	fff58593          	addi	a1,a1,-1 # fffdffff <_end+0xfffda2fb>
     600:	00b53633          	sltu	a2,a0,a1
     604:	08c72623          	sw	a2,140(a4)

00000608 <inst_54>:
     608:	00008537          	lui	a0,0x8
     60c:	fffc05b7          	lui	a1,0xfffc0
     610:	fff58593          	addi	a1,a1,-1 # fffbffff <_end+0xfffba2fb>
     614:	00b53633          	sltu	a2,a0,a1
     618:	08c72823          	sw	a2,144(a4)

0000061c <inst_55>:
     61c:	04000513          	li	a0,64
     620:	fff805b7          	lui	a1,0xfff80
     624:	fff58593          	addi	a1,a1,-1 # fff7ffff <_end+0xfff7a2fb>
     628:	00b53633          	sltu	a2,a0,a1
     62c:	08c72a23          	sw	a2,148(a4)

00000630 <inst_56>:
     630:	01000513          	li	a0,16
     634:	fff005b7          	lui	a1,0xfff00
     638:	fff58593          	addi	a1,a1,-1 # ffefffff <_end+0xffefa2fb>
     63c:	00b53633          	sltu	a2,a0,a1
     640:	08c72c23          	sw	a2,152(a4)

00000644 <inst_57>:
     644:	00000513          	li	a0,0
     648:	ffe005b7          	lui	a1,0xffe00
     64c:	fff58593          	addi	a1,a1,-1 # ffdfffff <_end+0xffdfa2fb>
     650:	00b53633          	sltu	a2,a0,a1
     654:	08c72e23          	sw	a2,156(a4)

00000658 <inst_58>:
     658:	00400513          	li	a0,4
     65c:	ffc005b7          	lui	a1,0xffc00
     660:	fff58593          	addi	a1,a1,-1 # ffbfffff <_end+0xffbfa2fb>
     664:	00b53633          	sltu	a2,a0,a1
     668:	0ac72023          	sw	a2,160(a4)

0000066c <inst_59>:
     66c:	00010537          	lui	a0,0x10
     670:	ffe50513          	addi	a0,a0,-2 # fffe <_end+0xa2fa>
     674:	ff8005b7          	lui	a1,0xff800
     678:	fff58593          	addi	a1,a1,-1 # ff7fffff <_end+0xff7fa2fb>
     67c:	00b53633          	sltu	a2,a0,a1
     680:	0ac72223          	sw	a2,164(a4)

00000684 <inst_60>:
     684:	00500513          	li	a0,5
     688:	ff0005b7          	lui	a1,0xff000
     68c:	fff58593          	addi	a1,a1,-1 # feffffff <_end+0xfeffa2fb>
     690:	00b53633          	sltu	a2,a0,a1
     694:	0ac72423          	sw	a2,168(a4)

00000698 <inst_61>:
     698:	00800537          	lui	a0,0x800
     69c:	fe0005b7          	lui	a1,0xfe000
     6a0:	fff58593          	addi	a1,a1,-1 # fdffffff <_end+0xfdffa2fb>
     6a4:	00b53633          	sltu	a2,a0,a1
     6a8:	0ac72623          	sw	a2,172(a4)

000006ac <inst_62>:
     6ac:	0000b537          	lui	a0,0xb
     6b0:	50350513          	addi	a0,a0,1283 # b503 <_end+0x57ff>
     6b4:	fc0005b7          	lui	a1,0xfc000
     6b8:	fff58593          	addi	a1,a1,-1 # fbffffff <_end+0xfbffa2fb>
     6bc:	00b53633          	sltu	a2,a0,a1
     6c0:	0ac72823          	sw	a2,176(a4)

000006c4 <inst_63>:
     6c4:	55555537          	lui	a0,0x55555
     6c8:	55550513          	addi	a0,a0,1365 # 55555555 <_end+0x5554f851>
     6cc:	f80005b7          	lui	a1,0xf8000
     6d0:	fff58593          	addi	a1,a1,-1 # f7ffffff <_end+0xf7ffa2fb>
     6d4:	00b53633          	sltu	a2,a0,a1
     6d8:	0ac72a23          	sw	a2,180(a4)

000006dc <inst_64>:
     6dc:	ffe00537          	lui	a0,0xffe00
     6e0:	fff50513          	addi	a0,a0,-1 # ffdfffff <_end+0xffdfa2fb>
     6e4:	f00005b7          	lui	a1,0xf0000
     6e8:	fff58593          	addi	a1,a1,-1 # efffffff <_end+0xefffa2fb>
     6ec:	00b53633          	sltu	a2,a0,a1
     6f0:	0ac72c23          	sw	a2,184(a4)

000006f4 <inst_65>:
     6f4:	00300513          	li	a0,3
     6f8:	e00005b7          	lui	a1,0xe0000
     6fc:	fff58593          	addi	a1,a1,-1 # dfffffff <_end+0xdfffa2fb>
     700:	00b53633          	sltu	a2,a0,a1
     704:	0ac72e23          	sw	a2,188(a4)

00000708 <inst_66>:
     708:	00001537          	lui	a0,0x1
     70c:	80050513          	addi	a0,a0,-2048 # 800 <inst_79>
     710:	c00005b7          	lui	a1,0xc0000
     714:	fff58593          	addi	a1,a1,-1 # bfffffff <_end+0xbfffa2fb>
     718:	00b53633          	sltu	a2,a0,a1
     71c:	0cc72023          	sw	a2,192(a4)

00000720 <inst_67>:
     720:	00800537          	lui	a0,0x800
     724:	800005b7          	lui	a1,0x80000
     728:	fff58593          	addi	a1,a1,-1 # 7fffffff <_end+0x7fffa2fb>
     72c:	00b53633          	sltu	a2,a0,a1
     730:	0cc72223          	sw	a2,196(a4)

00000734 <inst_68>:
     734:	ffc00537          	lui	a0,0xffc00
     738:	fff50513          	addi	a0,a0,-1 # ffbfffff <_end+0xffbfa2fb>
     73c:	555555b7          	lui	a1,0x55555
     740:	55558593          	addi	a1,a1,1365 # 55555555 <_end+0x5554f851>
     744:	00b53633          	sltu	a2,a0,a1
     748:	0cc72423          	sw	a2,200(a4)

0000074c <inst_69>:
     74c:	55555537          	lui	a0,0x55555
     750:	55450513          	addi	a0,a0,1364 # 55555554 <_end+0x5554f850>
     754:	aaaab5b7          	lui	a1,0xaaaab
     758:	aaa58593          	addi	a1,a1,-1366 # aaaaaaaa <_end+0xaaaa4da6>
     75c:	00b53633          	sltu	a2,a0,a1
     760:	0cc72623          	sw	a2,204(a4)

00000764 <inst_70>:
     764:	00200513          	li	a0,2
     768:	666665b7          	lui	a1,0x66666
     76c:	66558593          	addi	a1,a1,1637 # 66666665 <_end+0x66660961>
     770:	00b53633          	sltu	a2,a0,a1
     774:	0cc72823          	sw	a2,208(a4)

00000778 <inst_71>:
     778:	02000513          	li	a0,32
     77c:	0000b5b7          	lui	a1,0xb
     780:	50458593          	addi	a1,a1,1284 # b504 <_end+0x5800>
     784:	00b53633          	sltu	a2,a0,a1
     788:	0cc72a23          	sw	a2,212(a4)

0000078c <inst_72>:
     78c:	20000513          	li	a0,512
     790:	00300593          	li	a1,3
     794:	00b53633          	sltu	a2,a0,a1
     798:	0cc72c23          	sw	a2,216(a4)

0000079c <inst_73>:
     79c:	00001537          	lui	a0,0x1
     7a0:	00300593          	li	a1,3
     7a4:	00b53633          	sltu	a2,a0,a1
     7a8:	0cc72e23          	sw	a2,220(a4)

000007ac <inst_74>:
     7ac:	00004537          	lui	a0,0x4
     7b0:	00000593          	li	a1,0
     7b4:	00b53633          	sltu	a2,a0,a1
     7b8:	0ec72023          	sw	a2,224(a4)

000007bc <inst_75>:
     7bc:	00010537          	lui	a0,0x10
     7c0:	00500593          	li	a1,5
     7c4:	00b53633          	sltu	a2,a0,a1
     7c8:	0ec72223          	sw	a2,228(a4)

000007cc <inst_76>:
     7cc:	00020537          	lui	a0,0x20
     7d0:	000205b7          	lui	a1,0x20
     7d4:	00b53633          	sltu	a2,a0,a1
     7d8:	0ec72423          	sw	a2,232(a4)

000007dc <inst_77>:
     7dc:	00080537          	lui	a0,0x80
     7e0:	555555b7          	lui	a1,0x55555
     7e4:	55458593          	addi	a1,a1,1364 # 55555554 <_end+0x5554f850>
     7e8:	00b53633          	sltu	a2,a0,a1
     7ec:	0ec72623          	sw	a2,236(a4)

000007f0 <inst_78>:
     7f0:	00400537          	lui	a0,0x400
     7f4:	002005b7          	lui	a1,0x200
     7f8:	00b53633          	sltu	a2,a0,a1
     7fc:	0ec72823          	sw	a2,240(a4)

00000800 <inst_79>:
     800:	04000537          	lui	a0,0x4000
     804:	555555b7          	lui	a1,0x55555
     808:	55558593          	addi	a1,a1,1365 # 55555555 <_end+0x5554f851>
     80c:	00b53633          	sltu	a2,a0,a1
     810:	0ec72a23          	sw	a2,244(a4)

00000814 <inst_80>:
     814:	08000537          	lui	a0,0x8000
     818:	fffe05b7          	lui	a1,0xfffe0
     81c:	fff58593          	addi	a1,a1,-1 # fffdffff <_end+0xfffda2fb>
     820:	00b53633          	sltu	a2,a0,a1
     824:	0ec72c23          	sw	a2,248(a4)

00000828 <inst_81>:
     828:	ffd00513          	li	a0,-3
     82c:	01100593          	li	a1,17
     830:	00b53633          	sltu	a2,a0,a1
     834:	0ec72e23          	sw	a2,252(a4)

00000838 <inst_82>:
     838:	ffb00513          	li	a0,-5
     83c:	f7f00593          	li	a1,-129
     840:	00b53633          	sltu	a2,a0,a1
     844:	10c72023          	sw	a2,256(a4)

00000848 <inst_83>:
     848:	fef00513          	li	a0,-17
     84c:	333335b7          	lui	a1,0x33333
     850:	33458593          	addi	a1,a1,820 # 33333334 <_end+0x3332d630>
     854:	00b53633          	sltu	a2,a0,a1
     858:	10c72223          	sw	a2,260(a4)

0000085c <inst_84>:
     85c:	fdf00513          	li	a0,-33
     860:	fffc05b7          	lui	a1,0xfffc0
     864:	fff58593          	addi	a1,a1,-1 # fffbffff <_end+0xfffba2fb>
     868:	00b53633          	sltu	a2,a0,a1
     86c:	10c72423          	sw	a2,264(a4)

00000870 <inst_85>:
     870:	f7f00513          	li	a0,-129
     874:	00100593          	li	a1,1
     878:	00b53633          	sltu	a2,a0,a1
     87c:	10c72623          	sw	a2,268(a4)

00000880 <inst_86>:
     880:	eff00513          	li	a0,-257
     884:	400005b7          	lui	a1,0x40000
     888:	00b53633          	sltu	a2,a0,a1
     88c:	10c72823          	sw	a2,272(a4)

00000890 <inst_87>:
     890:	dff00513          	li	a0,-513
     894:	00a00593          	li	a1,10
     898:	00b53633          	sltu	a2,a0,a1
     89c:	10c72a23          	sw	a2,276(a4)

000008a0 <inst_88>:
     8a0:	bff00513          	li	a0,-1025
     8a4:	f80005b7          	lui	a1,0xf8000
     8a8:	fff58593          	addi	a1,a1,-1 # f7ffffff <_end+0xf7ffa2fb>
     8ac:	00b53633          	sltu	a2,a0,a1
     8b0:	10c72c23          	sw	a2,280(a4)

000008b4 <inst_89>:
     8b4:	fffff537          	lui	a0,0xfffff
     8b8:	fff50513          	addi	a0,a0,-1 # ffffefff <_end+0xffff92fb>
     8bc:	001005b7          	lui	a1,0x100
     8c0:	00b53633          	sltu	a2,a0,a1
     8c4:	10c72e23          	sw	a2,284(a4)

000008c8 <inst_90>:
     8c8:	ffffc537          	lui	a0,0xffffc
     8cc:	fff50513          	addi	a0,a0,-1 # ffffbfff <_end+0xffff62fb>
     8d0:	000085b7          	lui	a1,0x8
     8d4:	00b53633          	sltu	a2,a0,a1
     8d8:	12c72023          	sw	a2,288(a4)

000008dc <inst_91>:
     8dc:	ffff8537          	lui	a0,0xffff8
     8e0:	fff50513          	addi	a0,a0,-1 # ffff7fff <_end+0xffff22fb>
     8e4:	ffff05b7          	lui	a1,0xffff0
     8e8:	fff58593          	addi	a1,a1,-1 # fffeffff <_end+0xfffea2fb>
     8ec:	00b53633          	sltu	a2,a0,a1
     8f0:	12c72223          	sw	a2,292(a4)

000008f4 <inst_92>:
     8f4:	ffff0537          	lui	a0,0xffff0
     8f8:	fff50513          	addi	a0,a0,-1 # fffeffff <_end+0xfffea2fb>
     8fc:	fffff5b7          	lui	a1,0xfffff
     900:	7ff58593          	addi	a1,a1,2047 # fffff7ff <_end+0xffff9afb>
     904:	00b53633          	sltu	a2,a0,a1
     908:	12c72423          	sw	a2,296(a4)

0000090c <inst_93>:
     90c:	fffc0537          	lui	a0,0xfffc0
     910:	fff50513          	addi	a0,a0,-1 # fffbffff <_end+0xfffba2fb>
     914:	fff805b7          	lui	a1,0xfff80
     918:	fff58593          	addi	a1,a1,-1 # fff7ffff <_end+0xfff7a2fb>
     91c:	00b53633          	sltu	a2,a0,a1
     920:	12c72623          	sw	a2,300(a4)

00000924 <inst_94>:
     924:	ff800537          	lui	a0,0xff800
     928:	fff50513          	addi	a0,a0,-1 # ff7fffff <_end+0xff7fa2fb>
     92c:	00200593          	li	a1,2
     930:	00b53633          	sltu	a2,a0,a1
     934:	12c72823          	sw	a2,304(a4)

00000938 <inst_95>:
     938:	fe000537          	lui	a0,0xfe000
     93c:	fff50513          	addi	a0,a0,-1 # fdffffff <_end+0xfdffa2fb>
     940:	c00005b7          	lui	a1,0xc0000
     944:	fff58593          	addi	a1,a1,-1 # bfffffff <_end+0xbfffa2fb>
     948:	00b53633          	sltu	a2,a0,a1
     94c:	12c72a23          	sw	a2,308(a4)

00000950 <inst_96>:
     950:	f0000537          	lui	a0,0xf0000
     954:	fff50513          	addi	a0,a0,-1 # efffffff <_end+0xefffa2fb>
     958:	000015b7          	lui	a1,0x1
     95c:	80058593          	addi	a1,a1,-2048 # 800 <inst_79>
     960:	00b53633          	sltu	a2,a0,a1
     964:	12c72c23          	sw	a2,312(a4)

00000968 <inst_97>:
     968:	c0000537          	lui	a0,0xc0000
     96c:	fff50513          	addi	a0,a0,-1 # bfffffff <_end+0xbfffa2fb>
     970:	00400593          	li	a1,4
     974:	00b53633          	sltu	a2,a0,a1
     978:	12c72e23          	sw	a2,316(a4)

0000097c <inst_98>:
     97c:	00300513          	li	a0,3
     980:	00300593          	li	a1,3
     984:	00b53633          	sltu	a2,a0,a1
     988:	14c72023          	sw	a2,320(a4)

0000098c <inst_99>:
     98c:	00300513          	li	a0,3
     990:	555555b7          	lui	a1,0x55555
     994:	55558593          	addi	a1,a1,1365 # 55555555 <_end+0x5554f851>
     998:	00b53633          	sltu	a2,a0,a1
     99c:	14c72223          	sw	a2,324(a4)

000009a0 <inst_100>:
     9a0:	00300513          	li	a0,3
     9a4:	aaaab5b7          	lui	a1,0xaaaab
     9a8:	aaa58593          	addi	a1,a1,-1366 # aaaaaaaa <_end+0xaaaa4da6>
     9ac:	00b53633          	sltu	a2,a0,a1
     9b0:	14c72423          	sw	a2,328(a4)

000009b4 <inst_101>:
     9b4:	00300513          	li	a0,3
     9b8:	00500593          	li	a1,5
     9bc:	00b53633          	sltu	a2,a0,a1
     9c0:	14c72623          	sw	a2,332(a4)

000009c4 <inst_102>:
     9c4:	00300513          	li	a0,3
     9c8:	333335b7          	lui	a1,0x33333
     9cc:	33358593          	addi	a1,a1,819 # 33333333 <_end+0x3332d62f>
     9d0:	00b53633          	sltu	a2,a0,a1
     9d4:	14c72823          	sw	a2,336(a4)

000009d8 <inst_103>:
     9d8:	00300513          	li	a0,3
     9dc:	666665b7          	lui	a1,0x66666
     9e0:	66658593          	addi	a1,a1,1638 # 66666666 <_end+0x66660962>
     9e4:	00b53633          	sltu	a2,a0,a1
     9e8:	14c72a23          	sw	a2,340(a4)

000009ec <inst_104>:
     9ec:	00300513          	li	a0,3
     9f0:	0000b5b7          	lui	a1,0xb
     9f4:	50458593          	addi	a1,a1,1284 # b504 <_end+0x5800>
     9f8:	00b53633          	sltu	a2,a0,a1
     9fc:	14c72c23          	sw	a2,344(a4)

00000a00 <inst_105>:
     a00:	00300513          	li	a0,3
     a04:	00000593          	li	a1,0
     a08:	00b53633          	sltu	a2,a0,a1
     a0c:	14c72e23          	sw	a2,348(a4)

00000a10 <inst_106>:
     a10:	00300513          	li	a0,3
     a14:	000105b7          	lui	a1,0x10
     a18:	fff58593          	addi	a1,a1,-1 # ffff <_end+0xa2fb>
     a1c:	00b53633          	sltu	a2,a0,a1
     a20:	16c72023          	sw	a2,352(a4)

00000a24 <inst_107>:
     a24:	00300513          	li	a0,3
     a28:	00200593          	li	a1,2
     a2c:	00b53633          	sltu	a2,a0,a1
     a30:	16c72223          	sw	a2,356(a4)

00000a34 <inst_108>:
     a34:	00300513          	li	a0,3
     a38:	555555b7          	lui	a1,0x55555
     a3c:	55458593          	addi	a1,a1,1364 # 55555554 <_end+0x5554f850>
     a40:	00b53633          	sltu	a2,a0,a1
     a44:	16c72423          	sw	a2,360(a4)

00000a48 <inst_109>:
     a48:	00300513          	li	a0,3
     a4c:	aaaab5b7          	lui	a1,0xaaaab
     a50:	aa958593          	addi	a1,a1,-1367 # aaaaaaa9 <_end+0xaaaa4da5>
     a54:	00b53633          	sltu	a2,a0,a1
     a58:	16c72623          	sw	a2,364(a4)

00000a5c <inst_110>:
     a5c:	00300513          	li	a0,3
     a60:	00400593          	li	a1,4
     a64:	00b53633          	sltu	a2,a0,a1
     a68:	16c72823          	sw	a2,368(a4)

00000a6c <inst_111>:
     a6c:	00300513          	li	a0,3
     a70:	333335b7          	lui	a1,0x33333
     a74:	33258593          	addi	a1,a1,818 # 33333332 <_end+0x3332d62e>
     a78:	00b53633          	sltu	a2,a0,a1
     a7c:	16c72a23          	sw	a2,372(a4)

00000a80 <inst_112>:
     a80:	00300513          	li	a0,3
     a84:	666665b7          	lui	a1,0x66666
     a88:	66558593          	addi	a1,a1,1637 # 66666665 <_end+0x66660961>
     a8c:	00b53633          	sltu	a2,a0,a1
     a90:	16c72c23          	sw	a2,376(a4)

00000a94 <inst_113>:
     a94:	00300513          	li	a0,3
     a98:	0000b5b7          	lui	a1,0xb
     a9c:	50358593          	addi	a1,a1,1283 # b503 <_end+0x57ff>
     aa0:	00b53633          	sltu	a2,a0,a1
     aa4:	16c72e23          	sw	a2,380(a4)

00000aa8 <inst_114>:
     aa8:	00300513          	li	a0,3
     aac:	000105b7          	lui	a1,0x10
     ab0:	ffe58593          	addi	a1,a1,-2 # fffe <_end+0xa2fa>
     ab4:	00b53633          	sltu	a2,a0,a1
     ab8:	18c72023          	sw	a2,384(a4)

00000abc <inst_115>:
     abc:	00300513          	li	a0,3
     ac0:	555555b7          	lui	a1,0x55555
     ac4:	55658593          	addi	a1,a1,1366 # 55555556 <_end+0x5554f852>
     ac8:	00b53633          	sltu	a2,a0,a1
     acc:	18c72223          	sw	a2,388(a4)

00000ad0 <inst_116>:
     ad0:	00300513          	li	a0,3
     ad4:	aaaab5b7          	lui	a1,0xaaaab
     ad8:	aab58593          	addi	a1,a1,-1365 # aaaaaaab <_end+0xaaaa4da7>
     adc:	00b53633          	sltu	a2,a0,a1
     ae0:	18c72423          	sw	a2,392(a4)

00000ae4 <inst_117>:
     ae4:	00300513          	li	a0,3
     ae8:	00600593          	li	a1,6
     aec:	00b53633          	sltu	a2,a0,a1
     af0:	18c72623          	sw	a2,396(a4)

00000af4 <inst_118>:
     af4:	00300513          	li	a0,3
     af8:	333335b7          	lui	a1,0x33333
     afc:	33458593          	addi	a1,a1,820 # 33333334 <_end+0x3332d630>
     b00:	00b53633          	sltu	a2,a0,a1
     b04:	18c72823          	sw	a2,400(a4)

00000b08 <inst_119>:
     b08:	00300513          	li	a0,3
     b0c:	666665b7          	lui	a1,0x66666
     b10:	66758593          	addi	a1,a1,1639 # 66666667 <_end+0x66660963>
     b14:	00b53633          	sltu	a2,a0,a1
     b18:	18c72a23          	sw	a2,404(a4)

00000b1c <inst_120>:
     b1c:	00300513          	li	a0,3
     b20:	0000b5b7          	lui	a1,0xb
     b24:	50558593          	addi	a1,a1,1285 # b505 <_end+0x5801>
     b28:	00b53633          	sltu	a2,a0,a1
     b2c:	18c72c23          	sw	a2,408(a4)

00000b30 <inst_121>:
     b30:	00300513          	li	a0,3
     b34:	00100593          	li	a1,1
     b38:	00b53633          	sltu	a2,a0,a1
     b3c:	18c72e23          	sw	a2,412(a4)

00000b40 <inst_122>:
     b40:	00300513          	li	a0,3
     b44:	000105b7          	lui	a1,0x10
     b48:	00b53633          	sltu	a2,a0,a1
     b4c:	1ac72023          	sw	a2,416(a4)

00000b50 <inst_123>:
     b50:	55555537          	lui	a0,0x55555
     b54:	55550513          	addi	a0,a0,1365 # 55555555 <_end+0x5554f851>
     b58:	00300593          	li	a1,3
     b5c:	00b53633          	sltu	a2,a0,a1
     b60:	1ac72223          	sw	a2,420(a4)

00000b64 <inst_124>:
     b64:	55555537          	lui	a0,0x55555
     b68:	55550513          	addi	a0,a0,1365 # 55555555 <_end+0x5554f851>
     b6c:	555555b7          	lui	a1,0x55555
     b70:	55558593          	addi	a1,a1,1365 # 55555555 <_end+0x5554f851>
     b74:	00b53633          	sltu	a2,a0,a1
     b78:	1ac72423          	sw	a2,424(a4)

00000b7c <inst_125>:
     b7c:	55555537          	lui	a0,0x55555
     b80:	55550513          	addi	a0,a0,1365 # 55555555 <_end+0x5554f851>
     b84:	aaaab5b7          	lui	a1,0xaaaab
     b88:	aaa58593          	addi	a1,a1,-1366 # aaaaaaaa <_end+0xaaaa4da6>
     b8c:	00b53633          	sltu	a2,a0,a1
     b90:	1ac72623          	sw	a2,428(a4)

00000b94 <inst_126>:
     b94:	55555537          	lui	a0,0x55555
     b98:	55550513          	addi	a0,a0,1365 # 55555555 <_end+0x5554f851>
     b9c:	00500593          	li	a1,5
     ba0:	00b53633          	sltu	a2,a0,a1
     ba4:	1ac72823          	sw	a2,432(a4)

00000ba8 <inst_127>:
     ba8:	55555537          	lui	a0,0x55555
     bac:	55550513          	addi	a0,a0,1365 # 55555555 <_end+0x5554f851>
     bb0:	333335b7          	lui	a1,0x33333
     bb4:	33358593          	addi	a1,a1,819 # 33333333 <_end+0x3332d62f>
     bb8:	00b53633          	sltu	a2,a0,a1
     bbc:	1ac72a23          	sw	a2,436(a4)

00000bc0 <inst_128>:
     bc0:	55555537          	lui	a0,0x55555
     bc4:	55550513          	addi	a0,a0,1365 # 55555555 <_end+0x5554f851>
     bc8:	666665b7          	lui	a1,0x66666
     bcc:	66658593          	addi	a1,a1,1638 # 66666666 <_end+0x66660962>
     bd0:	00b53633          	sltu	a2,a0,a1
     bd4:	1ac72c23          	sw	a2,440(a4)

00000bd8 <inst_129>:
     bd8:	55555537          	lui	a0,0x55555
     bdc:	55550513          	addi	a0,a0,1365 # 55555555 <_end+0x5554f851>
     be0:	0000b5b7          	lui	a1,0xb
     be4:	50458593          	addi	a1,a1,1284 # b504 <_end+0x5800>
     be8:	00b53633          	sltu	a2,a0,a1
     bec:	1ac72e23          	sw	a2,444(a4)

00000bf0 <inst_130>:
     bf0:	55555537          	lui	a0,0x55555
     bf4:	55550513          	addi	a0,a0,1365 # 55555555 <_end+0x5554f851>
     bf8:	00000593          	li	a1,0
     bfc:	00b53633          	sltu	a2,a0,a1
     c00:	1cc72023          	sw	a2,448(a4)

00000c04 <inst_131>:
     c04:	55555537          	lui	a0,0x55555
     c08:	55550513          	addi	a0,a0,1365 # 55555555 <_end+0x5554f851>
     c0c:	000105b7          	lui	a1,0x10
     c10:	fff58593          	addi	a1,a1,-1 # ffff <_end+0xa2fb>
     c14:	00b53633          	sltu	a2,a0,a1
     c18:	1cc72223          	sw	a2,452(a4)

00000c1c <inst_132>:
     c1c:	55555537          	lui	a0,0x55555
     c20:	55550513          	addi	a0,a0,1365 # 55555555 <_end+0x5554f851>
     c24:	00200593          	li	a1,2
     c28:	00b53633          	sltu	a2,a0,a1
     c2c:	1cc72423          	sw	a2,456(a4)

00000c30 <inst_133>:
     c30:	55555537          	lui	a0,0x55555
     c34:	55550513          	addi	a0,a0,1365 # 55555555 <_end+0x5554f851>
     c38:	555555b7          	lui	a1,0x55555
     c3c:	55458593          	addi	a1,a1,1364 # 55555554 <_end+0x5554f850>
     c40:	00b53633          	sltu	a2,a0,a1
     c44:	1cc72623          	sw	a2,460(a4)

00000c48 <inst_134>:
     c48:	55555537          	lui	a0,0x55555
     c4c:	55550513          	addi	a0,a0,1365 # 55555555 <_end+0x5554f851>
     c50:	aaaab5b7          	lui	a1,0xaaaab
     c54:	aa958593          	addi	a1,a1,-1367 # aaaaaaa9 <_end+0xaaaa4da5>
     c58:	00b53633          	sltu	a2,a0,a1
     c5c:	1cc72823          	sw	a2,464(a4)

00000c60 <inst_135>:
     c60:	55555537          	lui	a0,0x55555
     c64:	55550513          	addi	a0,a0,1365 # 55555555 <_end+0x5554f851>
     c68:	00400593          	li	a1,4
     c6c:	00b53633          	sltu	a2,a0,a1
     c70:	1cc72a23          	sw	a2,468(a4)

00000c74 <inst_136>:
     c74:	55555537          	lui	a0,0x55555
     c78:	55550513          	addi	a0,a0,1365 # 55555555 <_end+0x5554f851>
     c7c:	333335b7          	lui	a1,0x33333
     c80:	33258593          	addi	a1,a1,818 # 33333332 <_end+0x3332d62e>
     c84:	00b53633          	sltu	a2,a0,a1
     c88:	1cc72c23          	sw	a2,472(a4)

00000c8c <inst_137>:
     c8c:	55555537          	lui	a0,0x55555
     c90:	55550513          	addi	a0,a0,1365 # 55555555 <_end+0x5554f851>
     c94:	666665b7          	lui	a1,0x66666
     c98:	66558593          	addi	a1,a1,1637 # 66666665 <_end+0x66660961>
     c9c:	00b53633          	sltu	a2,a0,a1
     ca0:	1cc72e23          	sw	a2,476(a4)

00000ca4 <inst_138>:
     ca4:	55555537          	lui	a0,0x55555
     ca8:	55550513          	addi	a0,a0,1365 # 55555555 <_end+0x5554f851>
     cac:	0000b5b7          	lui	a1,0xb
     cb0:	50358593          	addi	a1,a1,1283 # b503 <_end+0x57ff>
     cb4:	00b53633          	sltu	a2,a0,a1
     cb8:	1ec72023          	sw	a2,480(a4)

00000cbc <inst_139>:
     cbc:	55555537          	lui	a0,0x55555
     cc0:	55550513          	addi	a0,a0,1365 # 55555555 <_end+0x5554f851>
     cc4:	000105b7          	lui	a1,0x10
     cc8:	ffe58593          	addi	a1,a1,-2 # fffe <_end+0xa2fa>
     ccc:	00b53633          	sltu	a2,a0,a1
     cd0:	1ec72223          	sw	a2,484(a4)

00000cd4 <inst_140>:
     cd4:	55555537          	lui	a0,0x55555
     cd8:	55550513          	addi	a0,a0,1365 # 55555555 <_end+0x5554f851>
     cdc:	555555b7          	lui	a1,0x55555
     ce0:	55658593          	addi	a1,a1,1366 # 55555556 <_end+0x5554f852>
     ce4:	00b53633          	sltu	a2,a0,a1
     ce8:	1ec72423          	sw	a2,488(a4)

00000cec <inst_141>:
     cec:	55555537          	lui	a0,0x55555
     cf0:	55550513          	addi	a0,a0,1365 # 55555555 <_end+0x5554f851>
     cf4:	aaaab5b7          	lui	a1,0xaaaab
     cf8:	aab58593          	addi	a1,a1,-1365 # aaaaaaab <_end+0xaaaa4da7>
     cfc:	00b53633          	sltu	a2,a0,a1
     d00:	1ec72623          	sw	a2,492(a4)

00000d04 <inst_142>:
     d04:	55555537          	lui	a0,0x55555
     d08:	55550513          	addi	a0,a0,1365 # 55555555 <_end+0x5554f851>
     d0c:	00600593          	li	a1,6
     d10:	00b53633          	sltu	a2,a0,a1
     d14:	1ec72823          	sw	a2,496(a4)

00000d18 <inst_143>:
     d18:	55555537          	lui	a0,0x55555
     d1c:	55550513          	addi	a0,a0,1365 # 55555555 <_end+0x5554f851>
     d20:	333335b7          	lui	a1,0x33333
     d24:	33458593          	addi	a1,a1,820 # 33333334 <_end+0x3332d630>
     d28:	00b53633          	sltu	a2,a0,a1
     d2c:	1ec72a23          	sw	a2,500(a4)

00000d30 <inst_144>:
     d30:	55555537          	lui	a0,0x55555
     d34:	55550513          	addi	a0,a0,1365 # 55555555 <_end+0x5554f851>
     d38:	666665b7          	lui	a1,0x66666
     d3c:	66758593          	addi	a1,a1,1639 # 66666667 <_end+0x66660963>
     d40:	00b53633          	sltu	a2,a0,a1
     d44:	1ec72c23          	sw	a2,504(a4)

00000d48 <inst_145>:
     d48:	55555537          	lui	a0,0x55555
     d4c:	55550513          	addi	a0,a0,1365 # 55555555 <_end+0x5554f851>
     d50:	0000b5b7          	lui	a1,0xb
     d54:	50558593          	addi	a1,a1,1285 # b505 <_end+0x5801>
     d58:	00b53633          	sltu	a2,a0,a1
     d5c:	1ec72e23          	sw	a2,508(a4)

00000d60 <inst_146>:
     d60:	55555537          	lui	a0,0x55555
     d64:	55550513          	addi	a0,a0,1365 # 55555555 <_end+0x5554f851>
     d68:	00100593          	li	a1,1
     d6c:	00b53633          	sltu	a2,a0,a1
     d70:	20c72023          	sw	a2,512(a4)

00000d74 <inst_147>:
     d74:	55555537          	lui	a0,0x55555
     d78:	55550513          	addi	a0,a0,1365 # 55555555 <_end+0x5554f851>
     d7c:	000105b7          	lui	a1,0x10
     d80:	00b53633          	sltu	a2,a0,a1
     d84:	20c72223          	sw	a2,516(a4)

00000d88 <inst_148>:
     d88:	aaaab537          	lui	a0,0xaaaab
     d8c:	aaa50513          	addi	a0,a0,-1366 # aaaaaaaa <_end+0xaaaa4da6>
     d90:	00300593          	li	a1,3
     d94:	00b53633          	sltu	a2,a0,a1
     d98:	20c72423          	sw	a2,520(a4)

00000d9c <inst_149>:
     d9c:	aaaab537          	lui	a0,0xaaaab
     da0:	aaa50513          	addi	a0,a0,-1366 # aaaaaaaa <_end+0xaaaa4da6>
     da4:	555555b7          	lui	a1,0x55555
     da8:	55558593          	addi	a1,a1,1365 # 55555555 <_end+0x5554f851>
     dac:	00b53633          	sltu	a2,a0,a1
     db0:	20c72623          	sw	a2,524(a4)

00000db4 <inst_150>:
     db4:	aaaab537          	lui	a0,0xaaaab
     db8:	aaa50513          	addi	a0,a0,-1366 # aaaaaaaa <_end+0xaaaa4da6>
     dbc:	aaaab5b7          	lui	a1,0xaaaab
     dc0:	aaa58593          	addi	a1,a1,-1366 # aaaaaaaa <_end+0xaaaa4da6>
     dc4:	00b53633          	sltu	a2,a0,a1
     dc8:	20c72823          	sw	a2,528(a4)

00000dcc <inst_151>:
     dcc:	aaaab537          	lui	a0,0xaaaab
     dd0:	aaa50513          	addi	a0,a0,-1366 # aaaaaaaa <_end+0xaaaa4da6>
     dd4:	00500593          	li	a1,5
     dd8:	00b53633          	sltu	a2,a0,a1
     ddc:	20c72a23          	sw	a2,532(a4)

00000de0 <inst_152>:
     de0:	aaaab537          	lui	a0,0xaaaab
     de4:	aaa50513          	addi	a0,a0,-1366 # aaaaaaaa <_end+0xaaaa4da6>
     de8:	333335b7          	lui	a1,0x33333
     dec:	33358593          	addi	a1,a1,819 # 33333333 <_end+0x3332d62f>
     df0:	00b53633          	sltu	a2,a0,a1
     df4:	20c72c23          	sw	a2,536(a4)

00000df8 <inst_153>:
     df8:	aaaab537          	lui	a0,0xaaaab
     dfc:	aaa50513          	addi	a0,a0,-1366 # aaaaaaaa <_end+0xaaaa4da6>
     e00:	666665b7          	lui	a1,0x66666
     e04:	66658593          	addi	a1,a1,1638 # 66666666 <_end+0x66660962>
     e08:	00b53633          	sltu	a2,a0,a1
     e0c:	20c72e23          	sw	a2,540(a4)

00000e10 <inst_154>:
     e10:	aaaab537          	lui	a0,0xaaaab
     e14:	aaa50513          	addi	a0,a0,-1366 # aaaaaaaa <_end+0xaaaa4da6>
     e18:	0000b5b7          	lui	a1,0xb
     e1c:	50458593          	addi	a1,a1,1284 # b504 <_end+0x5800>
     e20:	00b53633          	sltu	a2,a0,a1
     e24:	22c72023          	sw	a2,544(a4)

00000e28 <inst_155>:
     e28:	aaaab537          	lui	a0,0xaaaab
     e2c:	aaa50513          	addi	a0,a0,-1366 # aaaaaaaa <_end+0xaaaa4da6>
     e30:	00000593          	li	a1,0
     e34:	00b53633          	sltu	a2,a0,a1
     e38:	22c72223          	sw	a2,548(a4)

00000e3c <inst_156>:
     e3c:	aaaab537          	lui	a0,0xaaaab
     e40:	aaa50513          	addi	a0,a0,-1366 # aaaaaaaa <_end+0xaaaa4da6>
     e44:	000105b7          	lui	a1,0x10
     e48:	fff58593          	addi	a1,a1,-1 # ffff <_end+0xa2fb>
     e4c:	00b53633          	sltu	a2,a0,a1
     e50:	22c72423          	sw	a2,552(a4)

00000e54 <inst_157>:
     e54:	aaaab537          	lui	a0,0xaaaab
     e58:	aaa50513          	addi	a0,a0,-1366 # aaaaaaaa <_end+0xaaaa4da6>
     e5c:	00200593          	li	a1,2
     e60:	00b53633          	sltu	a2,a0,a1
     e64:	22c72623          	sw	a2,556(a4)

00000e68 <inst_158>:
     e68:	aaaab537          	lui	a0,0xaaaab
     e6c:	aaa50513          	addi	a0,a0,-1366 # aaaaaaaa <_end+0xaaaa4da6>
     e70:	555555b7          	lui	a1,0x55555
     e74:	55458593          	addi	a1,a1,1364 # 55555554 <_end+0x5554f850>
     e78:	00b53633          	sltu	a2,a0,a1
     e7c:	22c72823          	sw	a2,560(a4)

00000e80 <inst_159>:
     e80:	aaaab537          	lui	a0,0xaaaab
     e84:	aaa50513          	addi	a0,a0,-1366 # aaaaaaaa <_end+0xaaaa4da6>
     e88:	aaaab5b7          	lui	a1,0xaaaab
     e8c:	aa958593          	addi	a1,a1,-1367 # aaaaaaa9 <_end+0xaaaa4da5>
     e90:	00b53633          	sltu	a2,a0,a1
     e94:	22c72a23          	sw	a2,564(a4)

00000e98 <inst_160>:
     e98:	aaaab537          	lui	a0,0xaaaab
     e9c:	aaa50513          	addi	a0,a0,-1366 # aaaaaaaa <_end+0xaaaa4da6>
     ea0:	00400593          	li	a1,4
     ea4:	00b53633          	sltu	a2,a0,a1
     ea8:	22c72c23          	sw	a2,568(a4)

00000eac <inst_161>:
     eac:	aaaab537          	lui	a0,0xaaaab
     eb0:	aaa50513          	addi	a0,a0,-1366 # aaaaaaaa <_end+0xaaaa4da6>
     eb4:	333335b7          	lui	a1,0x33333
     eb8:	33258593          	addi	a1,a1,818 # 33333332 <_end+0x3332d62e>
     ebc:	00b53633          	sltu	a2,a0,a1
     ec0:	22c72e23          	sw	a2,572(a4)

00000ec4 <inst_162>:
     ec4:	aaaab537          	lui	a0,0xaaaab
     ec8:	aaa50513          	addi	a0,a0,-1366 # aaaaaaaa <_end+0xaaaa4da6>
     ecc:	666665b7          	lui	a1,0x66666
     ed0:	66558593          	addi	a1,a1,1637 # 66666665 <_end+0x66660961>
     ed4:	00b53633          	sltu	a2,a0,a1
     ed8:	24c72023          	sw	a2,576(a4)

00000edc <inst_163>:
     edc:	aaaab537          	lui	a0,0xaaaab
     ee0:	aaa50513          	addi	a0,a0,-1366 # aaaaaaaa <_end+0xaaaa4da6>
     ee4:	0000b5b7          	lui	a1,0xb
     ee8:	50358593          	addi	a1,a1,1283 # b503 <_end+0x57ff>
     eec:	00b53633          	sltu	a2,a0,a1
     ef0:	24c72223          	sw	a2,580(a4)

00000ef4 <inst_164>:
     ef4:	aaaab537          	lui	a0,0xaaaab
     ef8:	aaa50513          	addi	a0,a0,-1366 # aaaaaaaa <_end+0xaaaa4da6>
     efc:	000105b7          	lui	a1,0x10
     f00:	ffe58593          	addi	a1,a1,-2 # fffe <_end+0xa2fa>
     f04:	00b53633          	sltu	a2,a0,a1
     f08:	24c72423          	sw	a2,584(a4)

00000f0c <inst_165>:
     f0c:	aaaab537          	lui	a0,0xaaaab
     f10:	aaa50513          	addi	a0,a0,-1366 # aaaaaaaa <_end+0xaaaa4da6>
     f14:	555555b7          	lui	a1,0x55555
     f18:	55658593          	addi	a1,a1,1366 # 55555556 <_end+0x5554f852>
     f1c:	00b53633          	sltu	a2,a0,a1
     f20:	24c72623          	sw	a2,588(a4)

00000f24 <inst_166>:
     f24:	aaaab537          	lui	a0,0xaaaab
     f28:	aaa50513          	addi	a0,a0,-1366 # aaaaaaaa <_end+0xaaaa4da6>
     f2c:	aaaab5b7          	lui	a1,0xaaaab
     f30:	aab58593          	addi	a1,a1,-1365 # aaaaaaab <_end+0xaaaa4da7>
     f34:	00b53633          	sltu	a2,a0,a1
     f38:	24c72823          	sw	a2,592(a4)

00000f3c <inst_167>:
     f3c:	aaaab537          	lui	a0,0xaaaab
     f40:	aaa50513          	addi	a0,a0,-1366 # aaaaaaaa <_end+0xaaaa4da6>
     f44:	00600593          	li	a1,6
     f48:	00b53633          	sltu	a2,a0,a1
     f4c:	24c72a23          	sw	a2,596(a4)

00000f50 <inst_168>:
     f50:	aaaab537          	lui	a0,0xaaaab
     f54:	aaa50513          	addi	a0,a0,-1366 # aaaaaaaa <_end+0xaaaa4da6>
     f58:	333335b7          	lui	a1,0x33333
     f5c:	33458593          	addi	a1,a1,820 # 33333334 <_end+0x3332d630>
     f60:	00b53633          	sltu	a2,a0,a1
     f64:	24c72c23          	sw	a2,600(a4)

00000f68 <inst_169>:
     f68:	aaaab537          	lui	a0,0xaaaab
     f6c:	aaa50513          	addi	a0,a0,-1366 # aaaaaaaa <_end+0xaaaa4da6>
     f70:	666665b7          	lui	a1,0x66666
     f74:	66758593          	addi	a1,a1,1639 # 66666667 <_end+0x66660963>
     f78:	00b53633          	sltu	a2,a0,a1
     f7c:	24c72e23          	sw	a2,604(a4)

00000f80 <inst_170>:
     f80:	aaaab537          	lui	a0,0xaaaab
     f84:	aaa50513          	addi	a0,a0,-1366 # aaaaaaaa <_end+0xaaaa4da6>
     f88:	0000b5b7          	lui	a1,0xb
     f8c:	50558593          	addi	a1,a1,1285 # b505 <_end+0x5801>
     f90:	00b53633          	sltu	a2,a0,a1
     f94:	26c72023          	sw	a2,608(a4)

00000f98 <inst_171>:
     f98:	aaaab537          	lui	a0,0xaaaab
     f9c:	aaa50513          	addi	a0,a0,-1366 # aaaaaaaa <_end+0xaaaa4da6>
     fa0:	00100593          	li	a1,1
     fa4:	00b53633          	sltu	a2,a0,a1
     fa8:	26c72223          	sw	a2,612(a4)

00000fac <inst_172>:
     fac:	aaaab537          	lui	a0,0xaaaab
     fb0:	aaa50513          	addi	a0,a0,-1366 # aaaaaaaa <_end+0xaaaa4da6>
     fb4:	000105b7          	lui	a1,0x10
     fb8:	00b53633          	sltu	a2,a0,a1
     fbc:	26c72423          	sw	a2,616(a4)

00000fc0 <inst_173>:
     fc0:	00500513          	li	a0,5
     fc4:	00300593          	li	a1,3
     fc8:	00b53633          	sltu	a2,a0,a1
     fcc:	26c72623          	sw	a2,620(a4)

00000fd0 <inst_174>:
     fd0:	00500513          	li	a0,5
     fd4:	555555b7          	lui	a1,0x55555
     fd8:	55558593          	addi	a1,a1,1365 # 55555555 <_end+0x5554f851>
     fdc:	00b53633          	sltu	a2,a0,a1
     fe0:	26c72823          	sw	a2,624(a4)

00000fe4 <inst_175>:
     fe4:	00500513          	li	a0,5
     fe8:	aaaab5b7          	lui	a1,0xaaaab
     fec:	aaa58593          	addi	a1,a1,-1366 # aaaaaaaa <_end+0xaaaa4da6>
     ff0:	00b53633          	sltu	a2,a0,a1
     ff4:	26c72a23          	sw	a2,628(a4)

00000ff8 <inst_176>:
     ff8:	00500513          	li	a0,5
     ffc:	00500593          	li	a1,5
    1000:	00b53633          	sltu	a2,a0,a1
    1004:	26c72c23          	sw	a2,632(a4)

00001008 <inst_177>:
    1008:	00500513          	li	a0,5
    100c:	333335b7          	lui	a1,0x33333
    1010:	33358593          	addi	a1,a1,819 # 33333333 <_end+0x3332d62f>
    1014:	00b53633          	sltu	a2,a0,a1
    1018:	26c72e23          	sw	a2,636(a4)

0000101c <inst_178>:
    101c:	00500513          	li	a0,5
    1020:	666665b7          	lui	a1,0x66666
    1024:	66658593          	addi	a1,a1,1638 # 66666666 <_end+0x66660962>
    1028:	00b53633          	sltu	a2,a0,a1
    102c:	28c72023          	sw	a2,640(a4)

00001030 <inst_179>:
    1030:	00500513          	li	a0,5
    1034:	0000b5b7          	lui	a1,0xb
    1038:	50458593          	addi	a1,a1,1284 # b504 <_end+0x5800>
    103c:	00b53633          	sltu	a2,a0,a1
    1040:	28c72223          	sw	a2,644(a4)

00001044 <inst_180>:
    1044:	00500513          	li	a0,5
    1048:	00000593          	li	a1,0
    104c:	00b53633          	sltu	a2,a0,a1
    1050:	28c72423          	sw	a2,648(a4)

00001054 <inst_181>:
    1054:	00500513          	li	a0,5
    1058:	000105b7          	lui	a1,0x10
    105c:	fff58593          	addi	a1,a1,-1 # ffff <_end+0xa2fb>
    1060:	00b53633          	sltu	a2,a0,a1
    1064:	28c72623          	sw	a2,652(a4)

00001068 <inst_182>:
    1068:	00500513          	li	a0,5
    106c:	00200593          	li	a1,2
    1070:	00b53633          	sltu	a2,a0,a1
    1074:	28c72823          	sw	a2,656(a4)

00001078 <inst_183>:
    1078:	00500513          	li	a0,5
    107c:	555555b7          	lui	a1,0x55555
    1080:	55458593          	addi	a1,a1,1364 # 55555554 <_end+0x5554f850>
    1084:	00b53633          	sltu	a2,a0,a1
    1088:	28c72a23          	sw	a2,660(a4)

0000108c <inst_184>:
    108c:	00500513          	li	a0,5
    1090:	aaaab5b7          	lui	a1,0xaaaab
    1094:	aa958593          	addi	a1,a1,-1367 # aaaaaaa9 <_end+0xaaaa4da5>
    1098:	00b53633          	sltu	a2,a0,a1
    109c:	28c72c23          	sw	a2,664(a4)

000010a0 <inst_185>:
    10a0:	00500513          	li	a0,5
    10a4:	00400593          	li	a1,4
    10a8:	00b53633          	sltu	a2,a0,a1
    10ac:	28c72e23          	sw	a2,668(a4)

000010b0 <inst_186>:
    10b0:	00500513          	li	a0,5
    10b4:	333335b7          	lui	a1,0x33333
    10b8:	33258593          	addi	a1,a1,818 # 33333332 <_end+0x3332d62e>
    10bc:	00b53633          	sltu	a2,a0,a1
    10c0:	2ac72023          	sw	a2,672(a4)

000010c4 <inst_187>:
    10c4:	00500513          	li	a0,5
    10c8:	666665b7          	lui	a1,0x66666
    10cc:	66558593          	addi	a1,a1,1637 # 66666665 <_end+0x66660961>
    10d0:	00b53633          	sltu	a2,a0,a1
    10d4:	2ac72223          	sw	a2,676(a4)

000010d8 <inst_188>:
    10d8:	00500513          	li	a0,5
    10dc:	0000b5b7          	lui	a1,0xb
    10e0:	50358593          	addi	a1,a1,1283 # b503 <_end+0x57ff>
    10e4:	00b53633          	sltu	a2,a0,a1
    10e8:	2ac72423          	sw	a2,680(a4)

000010ec <inst_189>:
    10ec:	00500513          	li	a0,5
    10f0:	000105b7          	lui	a1,0x10
    10f4:	ffe58593          	addi	a1,a1,-2 # fffe <_end+0xa2fa>
    10f8:	00b53633          	sltu	a2,a0,a1
    10fc:	2ac72623          	sw	a2,684(a4)

00001100 <inst_190>:
    1100:	00500513          	li	a0,5
    1104:	555555b7          	lui	a1,0x55555
    1108:	55658593          	addi	a1,a1,1366 # 55555556 <_end+0x5554f852>
    110c:	00b53633          	sltu	a2,a0,a1
    1110:	2ac72823          	sw	a2,688(a4)

00001114 <inst_191>:
    1114:	00500513          	li	a0,5
    1118:	aaaab5b7          	lui	a1,0xaaaab
    111c:	aab58593          	addi	a1,a1,-1365 # aaaaaaab <_end+0xaaaa4da7>
    1120:	00b53633          	sltu	a2,a0,a1
    1124:	2ac72a23          	sw	a2,692(a4)

00001128 <inst_192>:
    1128:	00500513          	li	a0,5
    112c:	00600593          	li	a1,6
    1130:	00b53633          	sltu	a2,a0,a1
    1134:	2ac72c23          	sw	a2,696(a4)

00001138 <inst_193>:
    1138:	00500513          	li	a0,5
    113c:	333335b7          	lui	a1,0x33333
    1140:	33458593          	addi	a1,a1,820 # 33333334 <_end+0x3332d630>
    1144:	00b53633          	sltu	a2,a0,a1
    1148:	2ac72e23          	sw	a2,700(a4)

0000114c <inst_194>:
    114c:	00500513          	li	a0,5
    1150:	666665b7          	lui	a1,0x66666
    1154:	66758593          	addi	a1,a1,1639 # 66666667 <_end+0x66660963>
    1158:	00b53633          	sltu	a2,a0,a1
    115c:	2cc72023          	sw	a2,704(a4)

00001160 <inst_195>:
    1160:	00500513          	li	a0,5
    1164:	0000b5b7          	lui	a1,0xb
    1168:	50558593          	addi	a1,a1,1285 # b505 <_end+0x5801>
    116c:	00b53633          	sltu	a2,a0,a1
    1170:	2cc72223          	sw	a2,708(a4)

00001174 <inst_196>:
    1174:	00500513          	li	a0,5
    1178:	00100593          	li	a1,1
    117c:	00b53633          	sltu	a2,a0,a1
    1180:	2cc72423          	sw	a2,712(a4)

00001184 <inst_197>:
    1184:	00500513          	li	a0,5
    1188:	000105b7          	lui	a1,0x10
    118c:	00b53633          	sltu	a2,a0,a1
    1190:	2cc72623          	sw	a2,716(a4)

00001194 <inst_198>:
    1194:	33333537          	lui	a0,0x33333
    1198:	33350513          	addi	a0,a0,819 # 33333333 <_end+0x3332d62f>
    119c:	00300593          	li	a1,3
    11a0:	00b53633          	sltu	a2,a0,a1
    11a4:	2cc72823          	sw	a2,720(a4)

000011a8 <inst_199>:
    11a8:	33333537          	lui	a0,0x33333
    11ac:	33350513          	addi	a0,a0,819 # 33333333 <_end+0x3332d62f>
    11b0:	555555b7          	lui	a1,0x55555
    11b4:	55558593          	addi	a1,a1,1365 # 55555555 <_end+0x5554f851>
    11b8:	00b53633          	sltu	a2,a0,a1
    11bc:	2cc72a23          	sw	a2,724(a4)

000011c0 <inst_200>:
    11c0:	33333537          	lui	a0,0x33333
    11c4:	33350513          	addi	a0,a0,819 # 33333333 <_end+0x3332d62f>
    11c8:	aaaab5b7          	lui	a1,0xaaaab
    11cc:	aaa58593          	addi	a1,a1,-1366 # aaaaaaaa <_end+0xaaaa4da6>
    11d0:	00b53633          	sltu	a2,a0,a1
    11d4:	2cc72c23          	sw	a2,728(a4)

000011d8 <inst_201>:
    11d8:	33333537          	lui	a0,0x33333
    11dc:	33350513          	addi	a0,a0,819 # 33333333 <_end+0x3332d62f>
    11e0:	00500593          	li	a1,5
    11e4:	00b53633          	sltu	a2,a0,a1
    11e8:	2cc72e23          	sw	a2,732(a4)

000011ec <inst_202>:
    11ec:	33333537          	lui	a0,0x33333
    11f0:	33350513          	addi	a0,a0,819 # 33333333 <_end+0x3332d62f>
    11f4:	333335b7          	lui	a1,0x33333
    11f8:	33358593          	addi	a1,a1,819 # 33333333 <_end+0x3332d62f>
    11fc:	00b53633          	sltu	a2,a0,a1
    1200:	2ec72023          	sw	a2,736(a4)

00001204 <inst_203>:
    1204:	33333537          	lui	a0,0x33333
    1208:	33350513          	addi	a0,a0,819 # 33333333 <_end+0x3332d62f>
    120c:	666665b7          	lui	a1,0x66666
    1210:	66658593          	addi	a1,a1,1638 # 66666666 <_end+0x66660962>
    1214:	00b53633          	sltu	a2,a0,a1
    1218:	2ec72223          	sw	a2,740(a4)

0000121c <inst_204>:
    121c:	33333537          	lui	a0,0x33333
    1220:	33350513          	addi	a0,a0,819 # 33333333 <_end+0x3332d62f>
    1224:	0000b5b7          	lui	a1,0xb
    1228:	50458593          	addi	a1,a1,1284 # b504 <_end+0x5800>
    122c:	00b53633          	sltu	a2,a0,a1
    1230:	2ec72423          	sw	a2,744(a4)

00001234 <inst_205>:
    1234:	33333537          	lui	a0,0x33333
    1238:	33350513          	addi	a0,a0,819 # 33333333 <_end+0x3332d62f>
    123c:	00000593          	li	a1,0
    1240:	00b53633          	sltu	a2,a0,a1
    1244:	2ec72623          	sw	a2,748(a4)

00001248 <inst_206>:
    1248:	33333537          	lui	a0,0x33333
    124c:	33350513          	addi	a0,a0,819 # 33333333 <_end+0x3332d62f>
    1250:	000105b7          	lui	a1,0x10
    1254:	fff58593          	addi	a1,a1,-1 # ffff <_end+0xa2fb>
    1258:	00b53633          	sltu	a2,a0,a1
    125c:	2ec72823          	sw	a2,752(a4)

00001260 <inst_207>:
    1260:	33333537          	lui	a0,0x33333
    1264:	33350513          	addi	a0,a0,819 # 33333333 <_end+0x3332d62f>
    1268:	00200593          	li	a1,2
    126c:	00b53633          	sltu	a2,a0,a1
    1270:	2ec72a23          	sw	a2,756(a4)

00001274 <inst_208>:
    1274:	33333537          	lui	a0,0x33333
    1278:	33350513          	addi	a0,a0,819 # 33333333 <_end+0x3332d62f>
    127c:	555555b7          	lui	a1,0x55555
    1280:	55458593          	addi	a1,a1,1364 # 55555554 <_end+0x5554f850>
    1284:	00b53633          	sltu	a2,a0,a1
    1288:	2ec72c23          	sw	a2,760(a4)

0000128c <inst_209>:
    128c:	33333537          	lui	a0,0x33333
    1290:	33350513          	addi	a0,a0,819 # 33333333 <_end+0x3332d62f>
    1294:	aaaab5b7          	lui	a1,0xaaaab
    1298:	aa958593          	addi	a1,a1,-1367 # aaaaaaa9 <_end+0xaaaa4da5>
    129c:	00b53633          	sltu	a2,a0,a1
    12a0:	2ec72e23          	sw	a2,764(a4)

000012a4 <inst_210>:
    12a4:	33333537          	lui	a0,0x33333
    12a8:	33350513          	addi	a0,a0,819 # 33333333 <_end+0x3332d62f>
    12ac:	00400593          	li	a1,4
    12b0:	00b53633          	sltu	a2,a0,a1
    12b4:	30c72023          	sw	a2,768(a4)

000012b8 <inst_211>:
    12b8:	33333537          	lui	a0,0x33333
    12bc:	33350513          	addi	a0,a0,819 # 33333333 <_end+0x3332d62f>
    12c0:	333335b7          	lui	a1,0x33333
    12c4:	33258593          	addi	a1,a1,818 # 33333332 <_end+0x3332d62e>
    12c8:	00b53633          	sltu	a2,a0,a1
    12cc:	30c72223          	sw	a2,772(a4)

000012d0 <inst_212>:
    12d0:	33333537          	lui	a0,0x33333
    12d4:	33350513          	addi	a0,a0,819 # 33333333 <_end+0x3332d62f>
    12d8:	666665b7          	lui	a1,0x66666
    12dc:	66558593          	addi	a1,a1,1637 # 66666665 <_end+0x66660961>
    12e0:	00b53633          	sltu	a2,a0,a1
    12e4:	30c72423          	sw	a2,776(a4)

000012e8 <inst_213>:
    12e8:	33333537          	lui	a0,0x33333
    12ec:	33350513          	addi	a0,a0,819 # 33333333 <_end+0x3332d62f>
    12f0:	0000b5b7          	lui	a1,0xb
    12f4:	50358593          	addi	a1,a1,1283 # b503 <_end+0x57ff>
    12f8:	00b53633          	sltu	a2,a0,a1
    12fc:	30c72623          	sw	a2,780(a4)

00001300 <inst_214>:
    1300:	33333537          	lui	a0,0x33333
    1304:	33350513          	addi	a0,a0,819 # 33333333 <_end+0x3332d62f>
    1308:	000105b7          	lui	a1,0x10
    130c:	ffe58593          	addi	a1,a1,-2 # fffe <_end+0xa2fa>
    1310:	00b53633          	sltu	a2,a0,a1
    1314:	30c72823          	sw	a2,784(a4)

00001318 <inst_215>:
    1318:	33333537          	lui	a0,0x33333
    131c:	33350513          	addi	a0,a0,819 # 33333333 <_end+0x3332d62f>
    1320:	555555b7          	lui	a1,0x55555
    1324:	55658593          	addi	a1,a1,1366 # 55555556 <_end+0x5554f852>
    1328:	00b53633          	sltu	a2,a0,a1
    132c:	30c72a23          	sw	a2,788(a4)

00001330 <inst_216>:
    1330:	33333537          	lui	a0,0x33333
    1334:	33350513          	addi	a0,a0,819 # 33333333 <_end+0x3332d62f>
    1338:	aaaab5b7          	lui	a1,0xaaaab
    133c:	aab58593          	addi	a1,a1,-1365 # aaaaaaab <_end+0xaaaa4da7>
    1340:	00b53633          	sltu	a2,a0,a1
    1344:	30c72c23          	sw	a2,792(a4)

00001348 <inst_217>:
    1348:	33333537          	lui	a0,0x33333
    134c:	33350513          	addi	a0,a0,819 # 33333333 <_end+0x3332d62f>
    1350:	00600593          	li	a1,6
    1354:	00b53633          	sltu	a2,a0,a1
    1358:	30c72e23          	sw	a2,796(a4)

0000135c <inst_218>:
    135c:	33333537          	lui	a0,0x33333
    1360:	33350513          	addi	a0,a0,819 # 33333333 <_end+0x3332d62f>
    1364:	333335b7          	lui	a1,0x33333
    1368:	33458593          	addi	a1,a1,820 # 33333334 <_end+0x3332d630>
    136c:	00b53633          	sltu	a2,a0,a1
    1370:	32c72023          	sw	a2,800(a4)

00001374 <inst_219>:
    1374:	33333537          	lui	a0,0x33333
    1378:	33350513          	addi	a0,a0,819 # 33333333 <_end+0x3332d62f>
    137c:	666665b7          	lui	a1,0x66666
    1380:	66758593          	addi	a1,a1,1639 # 66666667 <_end+0x66660963>
    1384:	00b53633          	sltu	a2,a0,a1
    1388:	32c72223          	sw	a2,804(a4)

0000138c <inst_220>:
    138c:	33333537          	lui	a0,0x33333
    1390:	33350513          	addi	a0,a0,819 # 33333333 <_end+0x3332d62f>
    1394:	0000b5b7          	lui	a1,0xb
    1398:	50558593          	addi	a1,a1,1285 # b505 <_end+0x5801>
    139c:	00b53633          	sltu	a2,a0,a1
    13a0:	32c72423          	sw	a2,808(a4)

000013a4 <inst_221>:
    13a4:	33333537          	lui	a0,0x33333
    13a8:	33350513          	addi	a0,a0,819 # 33333333 <_end+0x3332d62f>
    13ac:	00100593          	li	a1,1
    13b0:	00b53633          	sltu	a2,a0,a1
    13b4:	32c72623          	sw	a2,812(a4)

000013b8 <inst_222>:
    13b8:	33333537          	lui	a0,0x33333
    13bc:	33350513          	addi	a0,a0,819 # 33333333 <_end+0x3332d62f>
    13c0:	000105b7          	lui	a1,0x10
    13c4:	00b53633          	sltu	a2,a0,a1
    13c8:	32c72823          	sw	a2,816(a4)

000013cc <inst_223>:
    13cc:	66666537          	lui	a0,0x66666
    13d0:	66650513          	addi	a0,a0,1638 # 66666666 <_end+0x66660962>
    13d4:	00300593          	li	a1,3
    13d8:	00b53633          	sltu	a2,a0,a1
    13dc:	32c72a23          	sw	a2,820(a4)

000013e0 <inst_224>:
    13e0:	66666537          	lui	a0,0x66666
    13e4:	66650513          	addi	a0,a0,1638 # 66666666 <_end+0x66660962>
    13e8:	555555b7          	lui	a1,0x55555
    13ec:	55558593          	addi	a1,a1,1365 # 55555555 <_end+0x5554f851>
    13f0:	00b53633          	sltu	a2,a0,a1
    13f4:	32c72c23          	sw	a2,824(a4)

000013f8 <inst_225>:
    13f8:	66666537          	lui	a0,0x66666
    13fc:	66650513          	addi	a0,a0,1638 # 66666666 <_end+0x66660962>
    1400:	aaaab5b7          	lui	a1,0xaaaab
    1404:	aaa58593          	addi	a1,a1,-1366 # aaaaaaaa <_end+0xaaaa4da6>
    1408:	00b53633          	sltu	a2,a0,a1
    140c:	32c72e23          	sw	a2,828(a4)

00001410 <inst_226>:
    1410:	66666537          	lui	a0,0x66666
    1414:	66650513          	addi	a0,a0,1638 # 66666666 <_end+0x66660962>
    1418:	00500593          	li	a1,5
    141c:	00b53633          	sltu	a2,a0,a1
    1420:	34c72023          	sw	a2,832(a4)

00001424 <inst_227>:
    1424:	66666537          	lui	a0,0x66666
    1428:	66650513          	addi	a0,a0,1638 # 66666666 <_end+0x66660962>
    142c:	333335b7          	lui	a1,0x33333
    1430:	33358593          	addi	a1,a1,819 # 33333333 <_end+0x3332d62f>
    1434:	00b53633          	sltu	a2,a0,a1
    1438:	34c72223          	sw	a2,836(a4)

0000143c <inst_228>:
    143c:	66666537          	lui	a0,0x66666
    1440:	66650513          	addi	a0,a0,1638 # 66666666 <_end+0x66660962>
    1444:	666665b7          	lui	a1,0x66666
    1448:	66658593          	addi	a1,a1,1638 # 66666666 <_end+0x66660962>
    144c:	00b53633          	sltu	a2,a0,a1
    1450:	34c72423          	sw	a2,840(a4)

00001454 <inst_229>:
    1454:	66666537          	lui	a0,0x66666
    1458:	66650513          	addi	a0,a0,1638 # 66666666 <_end+0x66660962>
    145c:	0000b5b7          	lui	a1,0xb
    1460:	50458593          	addi	a1,a1,1284 # b504 <_end+0x5800>
    1464:	00b53633          	sltu	a2,a0,a1
    1468:	34c72623          	sw	a2,844(a4)

0000146c <inst_230>:
    146c:	66666537          	lui	a0,0x66666
    1470:	66650513          	addi	a0,a0,1638 # 66666666 <_end+0x66660962>
    1474:	00000593          	li	a1,0
    1478:	00b53633          	sltu	a2,a0,a1
    147c:	34c72823          	sw	a2,848(a4)

00001480 <inst_231>:
    1480:	66666537          	lui	a0,0x66666
    1484:	66650513          	addi	a0,a0,1638 # 66666666 <_end+0x66660962>
    1488:	000105b7          	lui	a1,0x10
    148c:	fff58593          	addi	a1,a1,-1 # ffff <_end+0xa2fb>
    1490:	00b53633          	sltu	a2,a0,a1
    1494:	34c72a23          	sw	a2,852(a4)

00001498 <inst_232>:
    1498:	66666537          	lui	a0,0x66666
    149c:	66650513          	addi	a0,a0,1638 # 66666666 <_end+0x66660962>
    14a0:	00200593          	li	a1,2
    14a4:	00b53633          	sltu	a2,a0,a1
    14a8:	34c72c23          	sw	a2,856(a4)

000014ac <inst_233>:
    14ac:	66666537          	lui	a0,0x66666
    14b0:	66650513          	addi	a0,a0,1638 # 66666666 <_end+0x66660962>
    14b4:	555555b7          	lui	a1,0x55555
    14b8:	55458593          	addi	a1,a1,1364 # 55555554 <_end+0x5554f850>
    14bc:	00b53633          	sltu	a2,a0,a1
    14c0:	34c72e23          	sw	a2,860(a4)

000014c4 <inst_234>:
    14c4:	66666537          	lui	a0,0x66666
    14c8:	66650513          	addi	a0,a0,1638 # 66666666 <_end+0x66660962>
    14cc:	aaaab5b7          	lui	a1,0xaaaab
    14d0:	aa958593          	addi	a1,a1,-1367 # aaaaaaa9 <_end+0xaaaa4da5>
    14d4:	00b53633          	sltu	a2,a0,a1
    14d8:	36c72023          	sw	a2,864(a4)

000014dc <inst_235>:
    14dc:	66666537          	lui	a0,0x66666
    14e0:	66650513          	addi	a0,a0,1638 # 66666666 <_end+0x66660962>
    14e4:	00400593          	li	a1,4
    14e8:	00b53633          	sltu	a2,a0,a1
    14ec:	36c72223          	sw	a2,868(a4)

000014f0 <inst_236>:
    14f0:	66666537          	lui	a0,0x66666
    14f4:	66650513          	addi	a0,a0,1638 # 66666666 <_end+0x66660962>
    14f8:	333335b7          	lui	a1,0x33333
    14fc:	33258593          	addi	a1,a1,818 # 33333332 <_end+0x3332d62e>
    1500:	00b53633          	sltu	a2,a0,a1
    1504:	36c72423          	sw	a2,872(a4)

00001508 <inst_237>:
    1508:	66666537          	lui	a0,0x66666
    150c:	66650513          	addi	a0,a0,1638 # 66666666 <_end+0x66660962>
    1510:	666665b7          	lui	a1,0x66666
    1514:	66558593          	addi	a1,a1,1637 # 66666665 <_end+0x66660961>
    1518:	00b53633          	sltu	a2,a0,a1
    151c:	36c72623          	sw	a2,876(a4)

00001520 <inst_238>:
    1520:	66666537          	lui	a0,0x66666
    1524:	66650513          	addi	a0,a0,1638 # 66666666 <_end+0x66660962>
    1528:	0000b5b7          	lui	a1,0xb
    152c:	50358593          	addi	a1,a1,1283 # b503 <_end+0x57ff>
    1530:	00b53633          	sltu	a2,a0,a1
    1534:	36c72823          	sw	a2,880(a4)

00001538 <inst_239>:
    1538:	66666537          	lui	a0,0x66666
    153c:	66650513          	addi	a0,a0,1638 # 66666666 <_end+0x66660962>
    1540:	000105b7          	lui	a1,0x10
    1544:	ffe58593          	addi	a1,a1,-2 # fffe <_end+0xa2fa>
    1548:	00b53633          	sltu	a2,a0,a1
    154c:	36c72a23          	sw	a2,884(a4)

00001550 <inst_240>:
    1550:	66666537          	lui	a0,0x66666
    1554:	66650513          	addi	a0,a0,1638 # 66666666 <_end+0x66660962>
    1558:	555555b7          	lui	a1,0x55555
    155c:	55658593          	addi	a1,a1,1366 # 55555556 <_end+0x5554f852>
    1560:	00b53633          	sltu	a2,a0,a1
    1564:	36c72c23          	sw	a2,888(a4)

00001568 <inst_241>:
    1568:	66666537          	lui	a0,0x66666
    156c:	66650513          	addi	a0,a0,1638 # 66666666 <_end+0x66660962>
    1570:	aaaab5b7          	lui	a1,0xaaaab
    1574:	aab58593          	addi	a1,a1,-1365 # aaaaaaab <_end+0xaaaa4da7>
    1578:	00b53633          	sltu	a2,a0,a1
    157c:	36c72e23          	sw	a2,892(a4)

00001580 <inst_242>:
    1580:	66666537          	lui	a0,0x66666
    1584:	66650513          	addi	a0,a0,1638 # 66666666 <_end+0x66660962>
    1588:	00600593          	li	a1,6
    158c:	00b53633          	sltu	a2,a0,a1
    1590:	38c72023          	sw	a2,896(a4)

00001594 <inst_243>:
    1594:	66666537          	lui	a0,0x66666
    1598:	66650513          	addi	a0,a0,1638 # 66666666 <_end+0x66660962>
    159c:	333335b7          	lui	a1,0x33333
    15a0:	33458593          	addi	a1,a1,820 # 33333334 <_end+0x3332d630>
    15a4:	00b53633          	sltu	a2,a0,a1
    15a8:	38c72223          	sw	a2,900(a4)

000015ac <inst_244>:
    15ac:	66666537          	lui	a0,0x66666
    15b0:	66650513          	addi	a0,a0,1638 # 66666666 <_end+0x66660962>
    15b4:	666665b7          	lui	a1,0x66666
    15b8:	66758593          	addi	a1,a1,1639 # 66666667 <_end+0x66660963>
    15bc:	00b53633          	sltu	a2,a0,a1
    15c0:	38c72423          	sw	a2,904(a4)

000015c4 <inst_245>:
    15c4:	66666537          	lui	a0,0x66666
    15c8:	66650513          	addi	a0,a0,1638 # 66666666 <_end+0x66660962>
    15cc:	0000b5b7          	lui	a1,0xb
    15d0:	50558593          	addi	a1,a1,1285 # b505 <_end+0x5801>
    15d4:	00b53633          	sltu	a2,a0,a1
    15d8:	38c72623          	sw	a2,908(a4)

000015dc <inst_246>:
    15dc:	66666537          	lui	a0,0x66666
    15e0:	66650513          	addi	a0,a0,1638 # 66666666 <_end+0x66660962>
    15e4:	00100593          	li	a1,1
    15e8:	00b53633          	sltu	a2,a0,a1
    15ec:	38c72823          	sw	a2,912(a4)

000015f0 <inst_247>:
    15f0:	66666537          	lui	a0,0x66666
    15f4:	66650513          	addi	a0,a0,1638 # 66666666 <_end+0x66660962>
    15f8:	000105b7          	lui	a1,0x10
    15fc:	00b53633          	sltu	a2,a0,a1
    1600:	38c72a23          	sw	a2,916(a4)

00001604 <inst_248>:
    1604:	0000b537          	lui	a0,0xb
    1608:	50450513          	addi	a0,a0,1284 # b504 <_end+0x5800>
    160c:	00300593          	li	a1,3
    1610:	00b53633          	sltu	a2,a0,a1
    1614:	38c72c23          	sw	a2,920(a4)

00001618 <inst_249>:
    1618:	0000b537          	lui	a0,0xb
    161c:	50450513          	addi	a0,a0,1284 # b504 <_end+0x5800>
    1620:	555555b7          	lui	a1,0x55555
    1624:	55558593          	addi	a1,a1,1365 # 55555555 <_end+0x5554f851>
    1628:	00b53633          	sltu	a2,a0,a1
    162c:	38c72e23          	sw	a2,924(a4)

00001630 <inst_250>:
    1630:	0000b537          	lui	a0,0xb
    1634:	50450513          	addi	a0,a0,1284 # b504 <_end+0x5800>
    1638:	aaaab5b7          	lui	a1,0xaaaab
    163c:	aaa58593          	addi	a1,a1,-1366 # aaaaaaaa <_end+0xaaaa4da6>
    1640:	00b53633          	sltu	a2,a0,a1
    1644:	3ac72023          	sw	a2,928(a4)

00001648 <inst_251>:
    1648:	0000b537          	lui	a0,0xb
    164c:	50450513          	addi	a0,a0,1284 # b504 <_end+0x5800>
    1650:	00500593          	li	a1,5
    1654:	00b53633          	sltu	a2,a0,a1
    1658:	3ac72223          	sw	a2,932(a4)

0000165c <inst_252>:
    165c:	0000b537          	lui	a0,0xb
    1660:	50450513          	addi	a0,a0,1284 # b504 <_end+0x5800>
    1664:	333335b7          	lui	a1,0x33333
    1668:	33358593          	addi	a1,a1,819 # 33333333 <_end+0x3332d62f>
    166c:	00b53633          	sltu	a2,a0,a1
    1670:	3ac72423          	sw	a2,936(a4)

00001674 <inst_253>:
    1674:	0000b537          	lui	a0,0xb
    1678:	50450513          	addi	a0,a0,1284 # b504 <_end+0x5800>
    167c:	666665b7          	lui	a1,0x66666
    1680:	66658593          	addi	a1,a1,1638 # 66666666 <_end+0x66660962>
    1684:	00b53633          	sltu	a2,a0,a1
    1688:	3ac72623          	sw	a2,940(a4)

0000168c <inst_254>:
    168c:	0000b537          	lui	a0,0xb
    1690:	50450513          	addi	a0,a0,1284 # b504 <_end+0x5800>
    1694:	0000b5b7          	lui	a1,0xb
    1698:	50458593          	addi	a1,a1,1284 # b504 <_end+0x5800>
    169c:	00b53633          	sltu	a2,a0,a1
    16a0:	3ac72823          	sw	a2,944(a4)

000016a4 <inst_255>:
    16a4:	0000b537          	lui	a0,0xb
    16a8:	50450513          	addi	a0,a0,1284 # b504 <_end+0x5800>
    16ac:	00000593          	li	a1,0
    16b0:	00b53633          	sltu	a2,a0,a1
    16b4:	3ac72a23          	sw	a2,948(a4)

000016b8 <inst_256>:
    16b8:	0000b537          	lui	a0,0xb
    16bc:	50450513          	addi	a0,a0,1284 # b504 <_end+0x5800>
    16c0:	000105b7          	lui	a1,0x10
    16c4:	fff58593          	addi	a1,a1,-1 # ffff <_end+0xa2fb>
    16c8:	00b53633          	sltu	a2,a0,a1
    16cc:	3ac72c23          	sw	a2,952(a4)

000016d0 <inst_257>:
    16d0:	0000b537          	lui	a0,0xb
    16d4:	50450513          	addi	a0,a0,1284 # b504 <_end+0x5800>
    16d8:	00200593          	li	a1,2
    16dc:	00b53633          	sltu	a2,a0,a1
    16e0:	3ac72e23          	sw	a2,956(a4)

000016e4 <inst_258>:
    16e4:	0000b537          	lui	a0,0xb
    16e8:	50450513          	addi	a0,a0,1284 # b504 <_end+0x5800>
    16ec:	555555b7          	lui	a1,0x55555
    16f0:	55458593          	addi	a1,a1,1364 # 55555554 <_end+0x5554f850>
    16f4:	00b53633          	sltu	a2,a0,a1
    16f8:	3cc72023          	sw	a2,960(a4)

000016fc <inst_259>:
    16fc:	0000b537          	lui	a0,0xb
    1700:	50450513          	addi	a0,a0,1284 # b504 <_end+0x5800>
    1704:	aaaab5b7          	lui	a1,0xaaaab
    1708:	aa958593          	addi	a1,a1,-1367 # aaaaaaa9 <_end+0xaaaa4da5>
    170c:	00b53633          	sltu	a2,a0,a1
    1710:	3cc72223          	sw	a2,964(a4)

00001714 <inst_260>:
    1714:	0000b537          	lui	a0,0xb
    1718:	50450513          	addi	a0,a0,1284 # b504 <_end+0x5800>
    171c:	00400593          	li	a1,4
    1720:	00b53633          	sltu	a2,a0,a1
    1724:	3cc72423          	sw	a2,968(a4)

00001728 <inst_261>:
    1728:	0000b537          	lui	a0,0xb
    172c:	50450513          	addi	a0,a0,1284 # b504 <_end+0x5800>
    1730:	333335b7          	lui	a1,0x33333
    1734:	33258593          	addi	a1,a1,818 # 33333332 <_end+0x3332d62e>
    1738:	00b53633          	sltu	a2,a0,a1
    173c:	3cc72623          	sw	a2,972(a4)

00001740 <inst_262>:
    1740:	0000b537          	lui	a0,0xb
    1744:	50450513          	addi	a0,a0,1284 # b504 <_end+0x5800>
    1748:	666665b7          	lui	a1,0x66666
    174c:	66558593          	addi	a1,a1,1637 # 66666665 <_end+0x66660961>
    1750:	00b53633          	sltu	a2,a0,a1
    1754:	3cc72823          	sw	a2,976(a4)

00001758 <inst_263>:
    1758:	0000b537          	lui	a0,0xb
    175c:	50450513          	addi	a0,a0,1284 # b504 <_end+0x5800>
    1760:	0000b5b7          	lui	a1,0xb
    1764:	50358593          	addi	a1,a1,1283 # b503 <_end+0x57ff>
    1768:	00b53633          	sltu	a2,a0,a1
    176c:	3cc72a23          	sw	a2,980(a4)

00001770 <inst_264>:
    1770:	0000b537          	lui	a0,0xb
    1774:	50450513          	addi	a0,a0,1284 # b504 <_end+0x5800>
    1778:	000105b7          	lui	a1,0x10
    177c:	ffe58593          	addi	a1,a1,-2 # fffe <_end+0xa2fa>
    1780:	00b53633          	sltu	a2,a0,a1
    1784:	3cc72c23          	sw	a2,984(a4)

00001788 <inst_265>:
    1788:	0000b537          	lui	a0,0xb
    178c:	50450513          	addi	a0,a0,1284 # b504 <_end+0x5800>
    1790:	555555b7          	lui	a1,0x55555
    1794:	55658593          	addi	a1,a1,1366 # 55555556 <_end+0x5554f852>
    1798:	00b53633          	sltu	a2,a0,a1
    179c:	3cc72e23          	sw	a2,988(a4)

000017a0 <inst_266>:
    17a0:	0000b537          	lui	a0,0xb
    17a4:	50450513          	addi	a0,a0,1284 # b504 <_end+0x5800>
    17a8:	aaaab5b7          	lui	a1,0xaaaab
    17ac:	aab58593          	addi	a1,a1,-1365 # aaaaaaab <_end+0xaaaa4da7>
    17b0:	00b53633          	sltu	a2,a0,a1
    17b4:	3ec72023          	sw	a2,992(a4)

000017b8 <inst_267>:
    17b8:	0000b537          	lui	a0,0xb
    17bc:	50450513          	addi	a0,a0,1284 # b504 <_end+0x5800>
    17c0:	00600593          	li	a1,6
    17c4:	00b53633          	sltu	a2,a0,a1
    17c8:	3ec72223          	sw	a2,996(a4)

000017cc <inst_268>:
    17cc:	0000b537          	lui	a0,0xb
    17d0:	50450513          	addi	a0,a0,1284 # b504 <_end+0x5800>
    17d4:	333335b7          	lui	a1,0x33333
    17d8:	33458593          	addi	a1,a1,820 # 33333334 <_end+0x3332d630>
    17dc:	00b53633          	sltu	a2,a0,a1
    17e0:	3ec72423          	sw	a2,1000(a4)

000017e4 <inst_269>:
    17e4:	0000b537          	lui	a0,0xb
    17e8:	50450513          	addi	a0,a0,1284 # b504 <_end+0x5800>
    17ec:	666665b7          	lui	a1,0x66666
    17f0:	66758593          	addi	a1,a1,1639 # 66666667 <_end+0x66660963>
    17f4:	00b53633          	sltu	a2,a0,a1
    17f8:	3ec72623          	sw	a2,1004(a4)

000017fc <inst_270>:
    17fc:	0000b537          	lui	a0,0xb
    1800:	50450513          	addi	a0,a0,1284 # b504 <_end+0x5800>
    1804:	0000b5b7          	lui	a1,0xb
    1808:	50558593          	addi	a1,a1,1285 # b505 <_end+0x5801>
    180c:	00b53633          	sltu	a2,a0,a1
    1810:	3ec72823          	sw	a2,1008(a4)

00001814 <inst_271>:
    1814:	0000b537          	lui	a0,0xb
    1818:	50450513          	addi	a0,a0,1284 # b504 <_end+0x5800>
    181c:	00100593          	li	a1,1
    1820:	00b53633          	sltu	a2,a0,a1
    1824:	3ec72a23          	sw	a2,1012(a4)

00001828 <inst_272>:
    1828:	0000b537          	lui	a0,0xb
    182c:	50450513          	addi	a0,a0,1284 # b504 <_end+0x5800>
    1830:	000105b7          	lui	a1,0x10
    1834:	00b53633          	sltu	a2,a0,a1
    1838:	3ec72c23          	sw	a2,1016(a4)

0000183c <inst_273>:
    183c:	00000513          	li	a0,0
    1840:	00300593          	li	a1,3
    1844:	00b53633          	sltu	a2,a0,a1
    1848:	3ec72e23          	sw	a2,1020(a4)

0000184c <inst_274>:
    184c:	00000513          	li	a0,0
    1850:	555555b7          	lui	a1,0x55555
    1854:	55558593          	addi	a1,a1,1365 # 55555555 <_end+0x5554f851>
    1858:	00b53633          	sltu	a2,a0,a1
    185c:	40c72023          	sw	a2,1024(a4)

00001860 <inst_275>:
    1860:	00000513          	li	a0,0
    1864:	aaaab5b7          	lui	a1,0xaaaab
    1868:	aaa58593          	addi	a1,a1,-1366 # aaaaaaaa <_end+0xaaaa4da6>
    186c:	00b53633          	sltu	a2,a0,a1
    1870:	40c72223          	sw	a2,1028(a4)

00001874 <inst_276>:
    1874:	00000513          	li	a0,0
    1878:	00500593          	li	a1,5
    187c:	00b53633          	sltu	a2,a0,a1
    1880:	40c72423          	sw	a2,1032(a4)

00001884 <inst_277>:
    1884:	00000513          	li	a0,0
    1888:	333335b7          	lui	a1,0x33333
    188c:	33358593          	addi	a1,a1,819 # 33333333 <_end+0x3332d62f>
    1890:	00b53633          	sltu	a2,a0,a1
    1894:	40c72623          	sw	a2,1036(a4)

00001898 <inst_278>:
    1898:	00000513          	li	a0,0
    189c:	666665b7          	lui	a1,0x66666
    18a0:	66658593          	addi	a1,a1,1638 # 66666666 <_end+0x66660962>
    18a4:	00b53633          	sltu	a2,a0,a1
    18a8:	40c72823          	sw	a2,1040(a4)

000018ac <inst_279>:
    18ac:	00000513          	li	a0,0
    18b0:	0000b5b7          	lui	a1,0xb
    18b4:	50458593          	addi	a1,a1,1284 # b504 <_end+0x5800>
    18b8:	00b53633          	sltu	a2,a0,a1
    18bc:	40c72a23          	sw	a2,1044(a4)

000018c0 <inst_280>:
    18c0:	00000513          	li	a0,0
    18c4:	00000593          	li	a1,0
    18c8:	00b53633          	sltu	a2,a0,a1
    18cc:	40c72c23          	sw	a2,1048(a4)

000018d0 <inst_281>:
    18d0:	00000513          	li	a0,0
    18d4:	000105b7          	lui	a1,0x10
    18d8:	fff58593          	addi	a1,a1,-1 # ffff <_end+0xa2fb>
    18dc:	00b53633          	sltu	a2,a0,a1
    18e0:	40c72e23          	sw	a2,1052(a4)

000018e4 <inst_282>:
    18e4:	00000513          	li	a0,0
    18e8:	00200593          	li	a1,2
    18ec:	00b53633          	sltu	a2,a0,a1
    18f0:	42c72023          	sw	a2,1056(a4)

000018f4 <inst_283>:
    18f4:	00000513          	li	a0,0
    18f8:	555555b7          	lui	a1,0x55555
    18fc:	55458593          	addi	a1,a1,1364 # 55555554 <_end+0x5554f850>
    1900:	00b53633          	sltu	a2,a0,a1
    1904:	42c72223          	sw	a2,1060(a4)

00001908 <inst_284>:
    1908:	00000513          	li	a0,0
    190c:	aaaab5b7          	lui	a1,0xaaaab
    1910:	aa958593          	addi	a1,a1,-1367 # aaaaaaa9 <_end+0xaaaa4da5>
    1914:	00b53633          	sltu	a2,a0,a1
    1918:	42c72423          	sw	a2,1064(a4)

0000191c <inst_285>:
    191c:	00000513          	li	a0,0
    1920:	00400593          	li	a1,4
    1924:	00b53633          	sltu	a2,a0,a1
    1928:	42c72623          	sw	a2,1068(a4)

0000192c <inst_286>:
    192c:	00000513          	li	a0,0
    1930:	333335b7          	lui	a1,0x33333
    1934:	33258593          	addi	a1,a1,818 # 33333332 <_end+0x3332d62e>
    1938:	00b53633          	sltu	a2,a0,a1
    193c:	42c72823          	sw	a2,1072(a4)

00001940 <inst_287>:
    1940:	00000513          	li	a0,0
    1944:	666665b7          	lui	a1,0x66666
    1948:	66558593          	addi	a1,a1,1637 # 66666665 <_end+0x66660961>
    194c:	00b53633          	sltu	a2,a0,a1
    1950:	42c72a23          	sw	a2,1076(a4)

00001954 <inst_288>:
    1954:	00000513          	li	a0,0
    1958:	0000b5b7          	lui	a1,0xb
    195c:	50358593          	addi	a1,a1,1283 # b503 <_end+0x57ff>
    1960:	00b53633          	sltu	a2,a0,a1
    1964:	42c72c23          	sw	a2,1080(a4)

00001968 <inst_289>:
    1968:	00000513          	li	a0,0
    196c:	000105b7          	lui	a1,0x10
    1970:	ffe58593          	addi	a1,a1,-2 # fffe <_end+0xa2fa>
    1974:	00b53633          	sltu	a2,a0,a1
    1978:	42c72e23          	sw	a2,1084(a4)

0000197c <inst_290>:
    197c:	00000513          	li	a0,0
    1980:	555555b7          	lui	a1,0x55555
    1984:	55658593          	addi	a1,a1,1366 # 55555556 <_end+0x5554f852>
    1988:	00b53633          	sltu	a2,a0,a1
    198c:	44c72023          	sw	a2,1088(a4)

00001990 <inst_291>:
    1990:	00000513          	li	a0,0
    1994:	aaaab5b7          	lui	a1,0xaaaab
    1998:	aab58593          	addi	a1,a1,-1365 # aaaaaaab <_end+0xaaaa4da7>
    199c:	00b53633          	sltu	a2,a0,a1
    19a0:	44c72223          	sw	a2,1092(a4)

000019a4 <inst_292>:
    19a4:	00000513          	li	a0,0
    19a8:	00600593          	li	a1,6
    19ac:	00b53633          	sltu	a2,a0,a1
    19b0:	44c72423          	sw	a2,1096(a4)

000019b4 <inst_293>:
    19b4:	00000513          	li	a0,0
    19b8:	333335b7          	lui	a1,0x33333
    19bc:	33458593          	addi	a1,a1,820 # 33333334 <_end+0x3332d630>
    19c0:	00b53633          	sltu	a2,a0,a1
    19c4:	44c72623          	sw	a2,1100(a4)

000019c8 <inst_294>:
    19c8:	00000513          	li	a0,0
    19cc:	666665b7          	lui	a1,0x66666
    19d0:	66758593          	addi	a1,a1,1639 # 66666667 <_end+0x66660963>
    19d4:	00b53633          	sltu	a2,a0,a1
    19d8:	44c72823          	sw	a2,1104(a4)

000019dc <inst_295>:
    19dc:	00000513          	li	a0,0
    19e0:	0000b5b7          	lui	a1,0xb
    19e4:	50558593          	addi	a1,a1,1285 # b505 <_end+0x5801>
    19e8:	00b53633          	sltu	a2,a0,a1
    19ec:	44c72a23          	sw	a2,1108(a4)

000019f0 <inst_296>:
    19f0:	00000513          	li	a0,0
    19f4:	00100593          	li	a1,1
    19f8:	00b53633          	sltu	a2,a0,a1
    19fc:	44c72c23          	sw	a2,1112(a4)

00001a00 <inst_297>:
    1a00:	00000513          	li	a0,0
    1a04:	000105b7          	lui	a1,0x10
    1a08:	00b53633          	sltu	a2,a0,a1
    1a0c:	44c72e23          	sw	a2,1116(a4)

00001a10 <inst_298>:
    1a10:	00010537          	lui	a0,0x10
    1a14:	fff50513          	addi	a0,a0,-1 # ffff <_end+0xa2fb>
    1a18:	00300593          	li	a1,3
    1a1c:	00b53633          	sltu	a2,a0,a1
    1a20:	46c72023          	sw	a2,1120(a4)

00001a24 <inst_299>:
    1a24:	00010537          	lui	a0,0x10
    1a28:	fff50513          	addi	a0,a0,-1 # ffff <_end+0xa2fb>
    1a2c:	555555b7          	lui	a1,0x55555
    1a30:	55558593          	addi	a1,a1,1365 # 55555555 <_end+0x5554f851>
    1a34:	00b53633          	sltu	a2,a0,a1
    1a38:	46c72223          	sw	a2,1124(a4)

00001a3c <inst_300>:
    1a3c:	00010537          	lui	a0,0x10
    1a40:	fff50513          	addi	a0,a0,-1 # ffff <_end+0xa2fb>
    1a44:	aaaab5b7          	lui	a1,0xaaaab
    1a48:	aaa58593          	addi	a1,a1,-1366 # aaaaaaaa <_end+0xaaaa4da6>
    1a4c:	00b53633          	sltu	a2,a0,a1
    1a50:	46c72423          	sw	a2,1128(a4)

00001a54 <inst_301>:
    1a54:	00010537          	lui	a0,0x10
    1a58:	fff50513          	addi	a0,a0,-1 # ffff <_end+0xa2fb>
    1a5c:	00500593          	li	a1,5
    1a60:	00b53633          	sltu	a2,a0,a1
    1a64:	46c72623          	sw	a2,1132(a4)

00001a68 <inst_302>:
    1a68:	00010537          	lui	a0,0x10
    1a6c:	fff50513          	addi	a0,a0,-1 # ffff <_end+0xa2fb>
    1a70:	333335b7          	lui	a1,0x33333
    1a74:	33358593          	addi	a1,a1,819 # 33333333 <_end+0x3332d62f>
    1a78:	00b53633          	sltu	a2,a0,a1
    1a7c:	46c72823          	sw	a2,1136(a4)

00001a80 <inst_303>:
    1a80:	00010537          	lui	a0,0x10
    1a84:	fff50513          	addi	a0,a0,-1 # ffff <_end+0xa2fb>
    1a88:	666665b7          	lui	a1,0x66666
    1a8c:	66658593          	addi	a1,a1,1638 # 66666666 <_end+0x66660962>
    1a90:	00b53633          	sltu	a2,a0,a1
    1a94:	46c72a23          	sw	a2,1140(a4)

00001a98 <inst_304>:
    1a98:	00010537          	lui	a0,0x10
    1a9c:	fff50513          	addi	a0,a0,-1 # ffff <_end+0xa2fb>
    1aa0:	0000b5b7          	lui	a1,0xb
    1aa4:	50458593          	addi	a1,a1,1284 # b504 <_end+0x5800>
    1aa8:	00b53633          	sltu	a2,a0,a1
    1aac:	46c72c23          	sw	a2,1144(a4)

00001ab0 <inst_305>:
    1ab0:	00010537          	lui	a0,0x10
    1ab4:	fff50513          	addi	a0,a0,-1 # ffff <_end+0xa2fb>
    1ab8:	00000593          	li	a1,0
    1abc:	00b53633          	sltu	a2,a0,a1
    1ac0:	46c72e23          	sw	a2,1148(a4)

00001ac4 <inst_306>:
    1ac4:	00010537          	lui	a0,0x10
    1ac8:	fff50513          	addi	a0,a0,-1 # ffff <_end+0xa2fb>
    1acc:	000105b7          	lui	a1,0x10
    1ad0:	fff58593          	addi	a1,a1,-1 # ffff <_end+0xa2fb>
    1ad4:	00b53633          	sltu	a2,a0,a1
    1ad8:	48c72023          	sw	a2,1152(a4)

00001adc <inst_307>:
    1adc:	00010537          	lui	a0,0x10
    1ae0:	fff50513          	addi	a0,a0,-1 # ffff <_end+0xa2fb>
    1ae4:	00200593          	li	a1,2
    1ae8:	00b53633          	sltu	a2,a0,a1
    1aec:	48c72223          	sw	a2,1156(a4)

00001af0 <inst_308>:
    1af0:	00010537          	lui	a0,0x10
    1af4:	fff50513          	addi	a0,a0,-1 # ffff <_end+0xa2fb>
    1af8:	555555b7          	lui	a1,0x55555
    1afc:	55458593          	addi	a1,a1,1364 # 55555554 <_end+0x5554f850>
    1b00:	00b53633          	sltu	a2,a0,a1
    1b04:	48c72423          	sw	a2,1160(a4)

00001b08 <inst_309>:
    1b08:	00010537          	lui	a0,0x10
    1b0c:	fff50513          	addi	a0,a0,-1 # ffff <_end+0xa2fb>
    1b10:	aaaab5b7          	lui	a1,0xaaaab
    1b14:	aa958593          	addi	a1,a1,-1367 # aaaaaaa9 <_end+0xaaaa4da5>
    1b18:	00b53633          	sltu	a2,a0,a1
    1b1c:	48c72623          	sw	a2,1164(a4)

00001b20 <inst_310>:
    1b20:	00010537          	lui	a0,0x10
    1b24:	fff50513          	addi	a0,a0,-1 # ffff <_end+0xa2fb>
    1b28:	00400593          	li	a1,4
    1b2c:	00b53633          	sltu	a2,a0,a1
    1b30:	48c72823          	sw	a2,1168(a4)

00001b34 <inst_311>:
    1b34:	00010537          	lui	a0,0x10
    1b38:	fff50513          	addi	a0,a0,-1 # ffff <_end+0xa2fb>
    1b3c:	333335b7          	lui	a1,0x33333
    1b40:	33258593          	addi	a1,a1,818 # 33333332 <_end+0x3332d62e>
    1b44:	00b53633          	sltu	a2,a0,a1
    1b48:	48c72a23          	sw	a2,1172(a4)

00001b4c <inst_312>:
    1b4c:	00010537          	lui	a0,0x10
    1b50:	fff50513          	addi	a0,a0,-1 # ffff <_end+0xa2fb>
    1b54:	666665b7          	lui	a1,0x66666
    1b58:	66558593          	addi	a1,a1,1637 # 66666665 <_end+0x66660961>
    1b5c:	00b53633          	sltu	a2,a0,a1
    1b60:	48c72c23          	sw	a2,1176(a4)

00001b64 <inst_313>:
    1b64:	00010537          	lui	a0,0x10
    1b68:	fff50513          	addi	a0,a0,-1 # ffff <_end+0xa2fb>
    1b6c:	0000b5b7          	lui	a1,0xb
    1b70:	50358593          	addi	a1,a1,1283 # b503 <_end+0x57ff>
    1b74:	00b53633          	sltu	a2,a0,a1
    1b78:	48c72e23          	sw	a2,1180(a4)

00001b7c <inst_314>:
    1b7c:	00010537          	lui	a0,0x10
    1b80:	fff50513          	addi	a0,a0,-1 # ffff <_end+0xa2fb>
    1b84:	000105b7          	lui	a1,0x10
    1b88:	ffe58593          	addi	a1,a1,-2 # fffe <_end+0xa2fa>
    1b8c:	00b53633          	sltu	a2,a0,a1
    1b90:	4ac72023          	sw	a2,1184(a4)

00001b94 <inst_315>:
    1b94:	00010537          	lui	a0,0x10
    1b98:	fff50513          	addi	a0,a0,-1 # ffff <_end+0xa2fb>
    1b9c:	555555b7          	lui	a1,0x55555
    1ba0:	55658593          	addi	a1,a1,1366 # 55555556 <_end+0x5554f852>
    1ba4:	00b53633          	sltu	a2,a0,a1
    1ba8:	4ac72223          	sw	a2,1188(a4)

00001bac <inst_316>:
    1bac:	00010537          	lui	a0,0x10
    1bb0:	fff50513          	addi	a0,a0,-1 # ffff <_end+0xa2fb>
    1bb4:	aaaab5b7          	lui	a1,0xaaaab
    1bb8:	aab58593          	addi	a1,a1,-1365 # aaaaaaab <_end+0xaaaa4da7>
    1bbc:	00b53633          	sltu	a2,a0,a1
    1bc0:	4ac72423          	sw	a2,1192(a4)

00001bc4 <inst_317>:
    1bc4:	00010537          	lui	a0,0x10
    1bc8:	fff50513          	addi	a0,a0,-1 # ffff <_end+0xa2fb>
    1bcc:	00600593          	li	a1,6
    1bd0:	00b53633          	sltu	a2,a0,a1
    1bd4:	4ac72623          	sw	a2,1196(a4)

00001bd8 <inst_318>:
    1bd8:	00010537          	lui	a0,0x10
    1bdc:	fff50513          	addi	a0,a0,-1 # ffff <_end+0xa2fb>
    1be0:	333335b7          	lui	a1,0x33333
    1be4:	33458593          	addi	a1,a1,820 # 33333334 <_end+0x3332d630>
    1be8:	00b53633          	sltu	a2,a0,a1
    1bec:	4ac72823          	sw	a2,1200(a4)

00001bf0 <inst_319>:
    1bf0:	00010537          	lui	a0,0x10
    1bf4:	fff50513          	addi	a0,a0,-1 # ffff <_end+0xa2fb>
    1bf8:	666665b7          	lui	a1,0x66666
    1bfc:	66758593          	addi	a1,a1,1639 # 66666667 <_end+0x66660963>
    1c00:	00b53633          	sltu	a2,a0,a1
    1c04:	4ac72a23          	sw	a2,1204(a4)

00001c08 <inst_320>:
    1c08:	00010537          	lui	a0,0x10
    1c0c:	fff50513          	addi	a0,a0,-1 # ffff <_end+0xa2fb>
    1c10:	0000b5b7          	lui	a1,0xb
    1c14:	50558593          	addi	a1,a1,1285 # b505 <_end+0x5801>
    1c18:	00b53633          	sltu	a2,a0,a1
    1c1c:	4ac72c23          	sw	a2,1208(a4)

00001c20 <inst_321>:
    1c20:	00010537          	lui	a0,0x10
    1c24:	fff50513          	addi	a0,a0,-1 # ffff <_end+0xa2fb>
    1c28:	00100593          	li	a1,1
    1c2c:	00b53633          	sltu	a2,a0,a1
    1c30:	4ac72e23          	sw	a2,1212(a4)

00001c34 <inst_322>:
    1c34:	00010537          	lui	a0,0x10
    1c38:	fff50513          	addi	a0,a0,-1 # ffff <_end+0xa2fb>
    1c3c:	000105b7          	lui	a1,0x10
    1c40:	00b53633          	sltu	a2,a0,a1
    1c44:	4cc72023          	sw	a2,1216(a4)

00001c48 <inst_323>:
    1c48:	00200513          	li	a0,2
    1c4c:	00300593          	li	a1,3
    1c50:	00b53633          	sltu	a2,a0,a1
    1c54:	4cc72223          	sw	a2,1220(a4)

00001c58 <inst_324>:
    1c58:	00200513          	li	a0,2
    1c5c:	555555b7          	lui	a1,0x55555
    1c60:	55558593          	addi	a1,a1,1365 # 55555555 <_end+0x5554f851>
    1c64:	00b53633          	sltu	a2,a0,a1
    1c68:	4cc72423          	sw	a2,1224(a4)

00001c6c <inst_325>:
    1c6c:	00200513          	li	a0,2
    1c70:	aaaab5b7          	lui	a1,0xaaaab
    1c74:	aaa58593          	addi	a1,a1,-1366 # aaaaaaaa <_end+0xaaaa4da6>
    1c78:	00b53633          	sltu	a2,a0,a1
    1c7c:	4cc72623          	sw	a2,1228(a4)

00001c80 <inst_326>:
    1c80:	00200513          	li	a0,2
    1c84:	00500593          	li	a1,5
    1c88:	00b53633          	sltu	a2,a0,a1
    1c8c:	4cc72823          	sw	a2,1232(a4)

00001c90 <inst_327>:
    1c90:	00200513          	li	a0,2
    1c94:	333335b7          	lui	a1,0x33333
    1c98:	33358593          	addi	a1,a1,819 # 33333333 <_end+0x3332d62f>
    1c9c:	00b53633          	sltu	a2,a0,a1
    1ca0:	4cc72a23          	sw	a2,1236(a4)

00001ca4 <inst_328>:
    1ca4:	00200513          	li	a0,2
    1ca8:	666665b7          	lui	a1,0x66666
    1cac:	66658593          	addi	a1,a1,1638 # 66666666 <_end+0x66660962>
    1cb0:	00b53633          	sltu	a2,a0,a1
    1cb4:	4cc72c23          	sw	a2,1240(a4)

00001cb8 <inst_329>:
    1cb8:	00200513          	li	a0,2
    1cbc:	0000b5b7          	lui	a1,0xb
    1cc0:	50458593          	addi	a1,a1,1284 # b504 <_end+0x5800>
    1cc4:	00b53633          	sltu	a2,a0,a1
    1cc8:	4cc72e23          	sw	a2,1244(a4)

00001ccc <inst_330>:
    1ccc:	00200513          	li	a0,2
    1cd0:	00000593          	li	a1,0
    1cd4:	00b53633          	sltu	a2,a0,a1
    1cd8:	4ec72023          	sw	a2,1248(a4)

00001cdc <inst_331>:
    1cdc:	00200513          	li	a0,2
    1ce0:	000105b7          	lui	a1,0x10
    1ce4:	fff58593          	addi	a1,a1,-1 # ffff <_end+0xa2fb>
    1ce8:	00b53633          	sltu	a2,a0,a1
    1cec:	4ec72223          	sw	a2,1252(a4)

00001cf0 <inst_332>:
    1cf0:	00200513          	li	a0,2
    1cf4:	00200593          	li	a1,2
    1cf8:	00b53633          	sltu	a2,a0,a1
    1cfc:	4ec72423          	sw	a2,1256(a4)

00001d00 <inst_333>:
    1d00:	00200513          	li	a0,2
    1d04:	555555b7          	lui	a1,0x55555
    1d08:	55458593          	addi	a1,a1,1364 # 55555554 <_end+0x5554f850>
    1d0c:	00b53633          	sltu	a2,a0,a1
    1d10:	4ec72623          	sw	a2,1260(a4)

00001d14 <inst_334>:
    1d14:	00200513          	li	a0,2
    1d18:	aaaab5b7          	lui	a1,0xaaaab
    1d1c:	aa958593          	addi	a1,a1,-1367 # aaaaaaa9 <_end+0xaaaa4da5>
    1d20:	00b53633          	sltu	a2,a0,a1
    1d24:	4ec72823          	sw	a2,1264(a4)

00001d28 <inst_335>:
    1d28:	00200513          	li	a0,2
    1d2c:	00400593          	li	a1,4
    1d30:	00b53633          	sltu	a2,a0,a1
    1d34:	4ec72a23          	sw	a2,1268(a4)

00001d38 <inst_336>:
    1d38:	00200513          	li	a0,2
    1d3c:	333335b7          	lui	a1,0x33333
    1d40:	33258593          	addi	a1,a1,818 # 33333332 <_end+0x3332d62e>
    1d44:	00b53633          	sltu	a2,a0,a1
    1d48:	4ec72c23          	sw	a2,1272(a4)

00001d4c <inst_337>:
    1d4c:	00200513          	li	a0,2
    1d50:	0000b5b7          	lui	a1,0xb
    1d54:	50358593          	addi	a1,a1,1283 # b503 <_end+0x57ff>
    1d58:	00b53633          	sltu	a2,a0,a1
    1d5c:	4ec72e23          	sw	a2,1276(a4)

00001d60 <inst_338>:
    1d60:	00200513          	li	a0,2
    1d64:	000105b7          	lui	a1,0x10
    1d68:	ffe58593          	addi	a1,a1,-2 # fffe <_end+0xa2fa>
    1d6c:	00b53633          	sltu	a2,a0,a1
    1d70:	50c72023          	sw	a2,1280(a4)

00001d74 <inst_339>:
    1d74:	00200513          	li	a0,2
    1d78:	555555b7          	lui	a1,0x55555
    1d7c:	55658593          	addi	a1,a1,1366 # 55555556 <_end+0x5554f852>
    1d80:	00b53633          	sltu	a2,a0,a1
    1d84:	50c72223          	sw	a2,1284(a4)

00001d88 <inst_340>:
    1d88:	00200513          	li	a0,2
    1d8c:	aaaab5b7          	lui	a1,0xaaaab
    1d90:	aab58593          	addi	a1,a1,-1365 # aaaaaaab <_end+0xaaaa4da7>
    1d94:	00b53633          	sltu	a2,a0,a1
    1d98:	50c72423          	sw	a2,1288(a4)

00001d9c <inst_341>:
    1d9c:	00200513          	li	a0,2
    1da0:	00600593          	li	a1,6
    1da4:	00b53633          	sltu	a2,a0,a1
    1da8:	50c72623          	sw	a2,1292(a4)

00001dac <inst_342>:
    1dac:	00200513          	li	a0,2
    1db0:	333335b7          	lui	a1,0x33333
    1db4:	33458593          	addi	a1,a1,820 # 33333334 <_end+0x3332d630>
    1db8:	00b53633          	sltu	a2,a0,a1
    1dbc:	50c72823          	sw	a2,1296(a4)

00001dc0 <inst_343>:
    1dc0:	00200513          	li	a0,2
    1dc4:	666665b7          	lui	a1,0x66666
    1dc8:	66758593          	addi	a1,a1,1639 # 66666667 <_end+0x66660963>
    1dcc:	00b53633          	sltu	a2,a0,a1
    1dd0:	50c72a23          	sw	a2,1300(a4)

00001dd4 <inst_344>:
    1dd4:	00200513          	li	a0,2
    1dd8:	0000b5b7          	lui	a1,0xb
    1ddc:	50558593          	addi	a1,a1,1285 # b505 <_end+0x5801>
    1de0:	00b53633          	sltu	a2,a0,a1
    1de4:	50c72c23          	sw	a2,1304(a4)

00001de8 <inst_345>:
    1de8:	00200513          	li	a0,2
    1dec:	00100593          	li	a1,1
    1df0:	00b53633          	sltu	a2,a0,a1
    1df4:	50c72e23          	sw	a2,1308(a4)

00001df8 <inst_346>:
    1df8:	00200513          	li	a0,2
    1dfc:	000105b7          	lui	a1,0x10
    1e00:	00b53633          	sltu	a2,a0,a1
    1e04:	52c72023          	sw	a2,1312(a4)

00001e08 <inst_347>:
    1e08:	55555537          	lui	a0,0x55555
    1e0c:	55450513          	addi	a0,a0,1364 # 55555554 <_end+0x5554f850>
    1e10:	00300593          	li	a1,3
    1e14:	00b53633          	sltu	a2,a0,a1
    1e18:	52c72223          	sw	a2,1316(a4)

00001e1c <inst_348>:
    1e1c:	55555537          	lui	a0,0x55555
    1e20:	55450513          	addi	a0,a0,1364 # 55555554 <_end+0x5554f850>
    1e24:	555555b7          	lui	a1,0x55555
    1e28:	55558593          	addi	a1,a1,1365 # 55555555 <_end+0x5554f851>
    1e2c:	00b53633          	sltu	a2,a0,a1
    1e30:	52c72423          	sw	a2,1320(a4)

00001e34 <inst_349>:
    1e34:	55555537          	lui	a0,0x55555
    1e38:	55450513          	addi	a0,a0,1364 # 55555554 <_end+0x5554f850>
    1e3c:	00500593          	li	a1,5
    1e40:	00b53633          	sltu	a2,a0,a1
    1e44:	52c72623          	sw	a2,1324(a4)

00001e48 <inst_350>:
    1e48:	55555537          	lui	a0,0x55555
    1e4c:	55450513          	addi	a0,a0,1364 # 55555554 <_end+0x5554f850>
    1e50:	333335b7          	lui	a1,0x33333
    1e54:	33358593          	addi	a1,a1,819 # 33333333 <_end+0x3332d62f>
    1e58:	00b53633          	sltu	a2,a0,a1
    1e5c:	52c72823          	sw	a2,1328(a4)

00001e60 <inst_351>:
    1e60:	55555537          	lui	a0,0x55555
    1e64:	55450513          	addi	a0,a0,1364 # 55555554 <_end+0x5554f850>
    1e68:	666665b7          	lui	a1,0x66666
    1e6c:	66658593          	addi	a1,a1,1638 # 66666666 <_end+0x66660962>
    1e70:	00b53633          	sltu	a2,a0,a1
    1e74:	52c72a23          	sw	a2,1332(a4)

00001e78 <inst_352>:
    1e78:	55555537          	lui	a0,0x55555
    1e7c:	55450513          	addi	a0,a0,1364 # 55555554 <_end+0x5554f850>
    1e80:	0000b5b7          	lui	a1,0xb
    1e84:	50458593          	addi	a1,a1,1284 # b504 <_end+0x5800>
    1e88:	00b53633          	sltu	a2,a0,a1
    1e8c:	52c72c23          	sw	a2,1336(a4)

00001e90 <inst_353>:
    1e90:	55555537          	lui	a0,0x55555
    1e94:	55450513          	addi	a0,a0,1364 # 55555554 <_end+0x5554f850>
    1e98:	00000593          	li	a1,0
    1e9c:	00b53633          	sltu	a2,a0,a1
    1ea0:	52c72e23          	sw	a2,1340(a4)

00001ea4 <inst_354>:
    1ea4:	55555537          	lui	a0,0x55555
    1ea8:	55450513          	addi	a0,a0,1364 # 55555554 <_end+0x5554f850>
    1eac:	000105b7          	lui	a1,0x10
    1eb0:	fff58593          	addi	a1,a1,-1 # ffff <_end+0xa2fb>
    1eb4:	00b53633          	sltu	a2,a0,a1
    1eb8:	54c72023          	sw	a2,1344(a4)

00001ebc <inst_355>:
    1ebc:	55555537          	lui	a0,0x55555
    1ec0:	55450513          	addi	a0,a0,1364 # 55555554 <_end+0x5554f850>
    1ec4:	00200593          	li	a1,2
    1ec8:	00b53633          	sltu	a2,a0,a1
    1ecc:	54c72223          	sw	a2,1348(a4)

00001ed0 <inst_356>:
    1ed0:	55555537          	lui	a0,0x55555
    1ed4:	55450513          	addi	a0,a0,1364 # 55555554 <_end+0x5554f850>
    1ed8:	555555b7          	lui	a1,0x55555
    1edc:	55458593          	addi	a1,a1,1364 # 55555554 <_end+0x5554f850>
    1ee0:	00b53633          	sltu	a2,a0,a1
    1ee4:	54c72423          	sw	a2,1352(a4)

00001ee8 <inst_357>:
    1ee8:	55555537          	lui	a0,0x55555
    1eec:	55450513          	addi	a0,a0,1364 # 55555554 <_end+0x5554f850>
    1ef0:	aaaab5b7          	lui	a1,0xaaaab
    1ef4:	aa958593          	addi	a1,a1,-1367 # aaaaaaa9 <_end+0xaaaa4da5>
    1ef8:	00b53633          	sltu	a2,a0,a1
    1efc:	54c72623          	sw	a2,1356(a4)

00001f00 <inst_358>:
    1f00:	55555537          	lui	a0,0x55555
    1f04:	55450513          	addi	a0,a0,1364 # 55555554 <_end+0x5554f850>
    1f08:	00400593          	li	a1,4
    1f0c:	00b53633          	sltu	a2,a0,a1
    1f10:	54c72823          	sw	a2,1360(a4)

00001f14 <inst_359>:
    1f14:	55555537          	lui	a0,0x55555
    1f18:	55450513          	addi	a0,a0,1364 # 55555554 <_end+0x5554f850>
    1f1c:	333335b7          	lui	a1,0x33333
    1f20:	33258593          	addi	a1,a1,818 # 33333332 <_end+0x3332d62e>
    1f24:	00b53633          	sltu	a2,a0,a1
    1f28:	54c72a23          	sw	a2,1364(a4)

00001f2c <inst_360>:
    1f2c:	55555537          	lui	a0,0x55555
    1f30:	55450513          	addi	a0,a0,1364 # 55555554 <_end+0x5554f850>
    1f34:	666665b7          	lui	a1,0x66666
    1f38:	66558593          	addi	a1,a1,1637 # 66666665 <_end+0x66660961>
    1f3c:	00b53633          	sltu	a2,a0,a1
    1f40:	54c72c23          	sw	a2,1368(a4)

00001f44 <inst_361>:
    1f44:	55555537          	lui	a0,0x55555
    1f48:	55450513          	addi	a0,a0,1364 # 55555554 <_end+0x5554f850>
    1f4c:	0000b5b7          	lui	a1,0xb
    1f50:	50358593          	addi	a1,a1,1283 # b503 <_end+0x57ff>
    1f54:	00b53633          	sltu	a2,a0,a1
    1f58:	54c72e23          	sw	a2,1372(a4)

00001f5c <inst_362>:
    1f5c:	55555537          	lui	a0,0x55555
    1f60:	55450513          	addi	a0,a0,1364 # 55555554 <_end+0x5554f850>
    1f64:	000105b7          	lui	a1,0x10
    1f68:	ffe58593          	addi	a1,a1,-2 # fffe <_end+0xa2fa>
    1f6c:	00b53633          	sltu	a2,a0,a1
    1f70:	56c72023          	sw	a2,1376(a4)

00001f74 <inst_363>:
    1f74:	55555537          	lui	a0,0x55555
    1f78:	55450513          	addi	a0,a0,1364 # 55555554 <_end+0x5554f850>
    1f7c:	555555b7          	lui	a1,0x55555
    1f80:	55658593          	addi	a1,a1,1366 # 55555556 <_end+0x5554f852>
    1f84:	00b53633          	sltu	a2,a0,a1
    1f88:	56c72223          	sw	a2,1380(a4)

00001f8c <inst_364>:
    1f8c:	55555537          	lui	a0,0x55555
    1f90:	55450513          	addi	a0,a0,1364 # 55555554 <_end+0x5554f850>
    1f94:	aaaab5b7          	lui	a1,0xaaaab
    1f98:	aab58593          	addi	a1,a1,-1365 # aaaaaaab <_end+0xaaaa4da7>
    1f9c:	00b53633          	sltu	a2,a0,a1
    1fa0:	56c72423          	sw	a2,1384(a4)

00001fa4 <inst_365>:
    1fa4:	55555537          	lui	a0,0x55555
    1fa8:	55450513          	addi	a0,a0,1364 # 55555554 <_end+0x5554f850>
    1fac:	00600593          	li	a1,6
    1fb0:	00b53633          	sltu	a2,a0,a1
    1fb4:	56c72623          	sw	a2,1388(a4)

00001fb8 <inst_366>:
    1fb8:	55555537          	lui	a0,0x55555
    1fbc:	55450513          	addi	a0,a0,1364 # 55555554 <_end+0x5554f850>
    1fc0:	333335b7          	lui	a1,0x33333
    1fc4:	33458593          	addi	a1,a1,820 # 33333334 <_end+0x3332d630>
    1fc8:	00b53633          	sltu	a2,a0,a1
    1fcc:	56c72823          	sw	a2,1392(a4)

00001fd0 <inst_367>:
    1fd0:	55555537          	lui	a0,0x55555
    1fd4:	55450513          	addi	a0,a0,1364 # 55555554 <_end+0x5554f850>
    1fd8:	666665b7          	lui	a1,0x66666
    1fdc:	66758593          	addi	a1,a1,1639 # 66666667 <_end+0x66660963>
    1fe0:	00b53633          	sltu	a2,a0,a1
    1fe4:	56c72a23          	sw	a2,1396(a4)

00001fe8 <inst_368>:
    1fe8:	55555537          	lui	a0,0x55555
    1fec:	55450513          	addi	a0,a0,1364 # 55555554 <_end+0x5554f850>
    1ff0:	0000b5b7          	lui	a1,0xb
    1ff4:	50558593          	addi	a1,a1,1285 # b505 <_end+0x5801>
    1ff8:	00b53633          	sltu	a2,a0,a1
    1ffc:	56c72c23          	sw	a2,1400(a4)

00002000 <inst_369>:
    2000:	55555537          	lui	a0,0x55555
    2004:	55450513          	addi	a0,a0,1364 # 55555554 <_end+0x5554f850>
    2008:	00100593          	li	a1,1
    200c:	00b53633          	sltu	a2,a0,a1
    2010:	56c72e23          	sw	a2,1404(a4)

00002014 <inst_370>:
    2014:	55555537          	lui	a0,0x55555
    2018:	55450513          	addi	a0,a0,1364 # 55555554 <_end+0x5554f850>
    201c:	000105b7          	lui	a1,0x10
    2020:	00b53633          	sltu	a2,a0,a1
    2024:	58c72023          	sw	a2,1408(a4)

00002028 <inst_371>:
    2028:	aaaab537          	lui	a0,0xaaaab
    202c:	aa950513          	addi	a0,a0,-1367 # aaaaaaa9 <_end+0xaaaa4da5>
    2030:	00300593          	li	a1,3
    2034:	00b53633          	sltu	a2,a0,a1
    2038:	58c72223          	sw	a2,1412(a4)

0000203c <inst_372>:
    203c:	aaaab537          	lui	a0,0xaaaab
    2040:	aa950513          	addi	a0,a0,-1367 # aaaaaaa9 <_end+0xaaaa4da5>
    2044:	555555b7          	lui	a1,0x55555
    2048:	55558593          	addi	a1,a1,1365 # 55555555 <_end+0x5554f851>
    204c:	00b53633          	sltu	a2,a0,a1
    2050:	58c72423          	sw	a2,1416(a4)

00002054 <inst_373>:
    2054:	aaaab537          	lui	a0,0xaaaab
    2058:	aa950513          	addi	a0,a0,-1367 # aaaaaaa9 <_end+0xaaaa4da5>
    205c:	aaaab5b7          	lui	a1,0xaaaab
    2060:	aaa58593          	addi	a1,a1,-1366 # aaaaaaaa <_end+0xaaaa4da6>
    2064:	00b53633          	sltu	a2,a0,a1
    2068:	58c72623          	sw	a2,1420(a4)

0000206c <inst_374>:
    206c:	aaaab537          	lui	a0,0xaaaab
    2070:	aa950513          	addi	a0,a0,-1367 # aaaaaaa9 <_end+0xaaaa4da5>
    2074:	00500593          	li	a1,5
    2078:	00b53633          	sltu	a2,a0,a1
    207c:	58c72823          	sw	a2,1424(a4)

00002080 <inst_375>:
    2080:	aaaab537          	lui	a0,0xaaaab
    2084:	aa950513          	addi	a0,a0,-1367 # aaaaaaa9 <_end+0xaaaa4da5>
    2088:	333335b7          	lui	a1,0x33333
    208c:	33358593          	addi	a1,a1,819 # 33333333 <_end+0x3332d62f>
    2090:	00b53633          	sltu	a2,a0,a1
    2094:	58c72a23          	sw	a2,1428(a4)

00002098 <inst_376>:
    2098:	aaaab537          	lui	a0,0xaaaab
    209c:	aa950513          	addi	a0,a0,-1367 # aaaaaaa9 <_end+0xaaaa4da5>
    20a0:	666665b7          	lui	a1,0x66666
    20a4:	66658593          	addi	a1,a1,1638 # 66666666 <_end+0x66660962>
    20a8:	00b53633          	sltu	a2,a0,a1
    20ac:	58c72c23          	sw	a2,1432(a4)

000020b0 <inst_377>:
    20b0:	aaaab537          	lui	a0,0xaaaab
    20b4:	aa950513          	addi	a0,a0,-1367 # aaaaaaa9 <_end+0xaaaa4da5>
    20b8:	0000b5b7          	lui	a1,0xb
    20bc:	50458593          	addi	a1,a1,1284 # b504 <_end+0x5800>
    20c0:	00b53633          	sltu	a2,a0,a1
    20c4:	58c72e23          	sw	a2,1436(a4)

000020c8 <inst_378>:
    20c8:	aaaab537          	lui	a0,0xaaaab
    20cc:	aa950513          	addi	a0,a0,-1367 # aaaaaaa9 <_end+0xaaaa4da5>
    20d0:	00000593          	li	a1,0
    20d4:	00b53633          	sltu	a2,a0,a1
    20d8:	5ac72023          	sw	a2,1440(a4)

000020dc <inst_379>:
    20dc:	aaaab537          	lui	a0,0xaaaab
    20e0:	aa950513          	addi	a0,a0,-1367 # aaaaaaa9 <_end+0xaaaa4da5>
    20e4:	000105b7          	lui	a1,0x10
    20e8:	fff58593          	addi	a1,a1,-1 # ffff <_end+0xa2fb>
    20ec:	00b53633          	sltu	a2,a0,a1
    20f0:	5ac72223          	sw	a2,1444(a4)

000020f4 <inst_380>:
    20f4:	aaaab537          	lui	a0,0xaaaab
    20f8:	aa950513          	addi	a0,a0,-1367 # aaaaaaa9 <_end+0xaaaa4da5>
    20fc:	00200593          	li	a1,2
    2100:	00b53633          	sltu	a2,a0,a1
    2104:	5ac72423          	sw	a2,1448(a4)

00002108 <inst_381>:
    2108:	aaaab537          	lui	a0,0xaaaab
    210c:	aa950513          	addi	a0,a0,-1367 # aaaaaaa9 <_end+0xaaaa4da5>
    2110:	555555b7          	lui	a1,0x55555
    2114:	55458593          	addi	a1,a1,1364 # 55555554 <_end+0x5554f850>
    2118:	00b53633          	sltu	a2,a0,a1
    211c:	5ac72623          	sw	a2,1452(a4)

00002120 <inst_382>:
    2120:	aaaab537          	lui	a0,0xaaaab
    2124:	aa950513          	addi	a0,a0,-1367 # aaaaaaa9 <_end+0xaaaa4da5>
    2128:	aaaab5b7          	lui	a1,0xaaaab
    212c:	aa958593          	addi	a1,a1,-1367 # aaaaaaa9 <_end+0xaaaa4da5>
    2130:	00b53633          	sltu	a2,a0,a1
    2134:	5ac72823          	sw	a2,1456(a4)

00002138 <inst_383>:
    2138:	aaaab537          	lui	a0,0xaaaab
    213c:	aa950513          	addi	a0,a0,-1367 # aaaaaaa9 <_end+0xaaaa4da5>
    2140:	00400593          	li	a1,4
    2144:	00b53633          	sltu	a2,a0,a1
    2148:	5ac72a23          	sw	a2,1460(a4)

0000214c <inst_384>:
    214c:	aaaab537          	lui	a0,0xaaaab
    2150:	aa950513          	addi	a0,a0,-1367 # aaaaaaa9 <_end+0xaaaa4da5>
    2154:	333335b7          	lui	a1,0x33333
    2158:	33258593          	addi	a1,a1,818 # 33333332 <_end+0x3332d62e>
    215c:	00b53633          	sltu	a2,a0,a1
    2160:	5ac72c23          	sw	a2,1464(a4)

00002164 <inst_385>:
    2164:	aaaab537          	lui	a0,0xaaaab
    2168:	aa950513          	addi	a0,a0,-1367 # aaaaaaa9 <_end+0xaaaa4da5>
    216c:	666665b7          	lui	a1,0x66666
    2170:	66558593          	addi	a1,a1,1637 # 66666665 <_end+0x66660961>
    2174:	00b53633          	sltu	a2,a0,a1
    2178:	5ac72e23          	sw	a2,1468(a4)

0000217c <inst_386>:
    217c:	aaaab537          	lui	a0,0xaaaab
    2180:	aa950513          	addi	a0,a0,-1367 # aaaaaaa9 <_end+0xaaaa4da5>
    2184:	0000b5b7          	lui	a1,0xb
    2188:	50358593          	addi	a1,a1,1283 # b503 <_end+0x57ff>
    218c:	00b53633          	sltu	a2,a0,a1
    2190:	5cc72023          	sw	a2,1472(a4)

00002194 <inst_387>:
    2194:	aaaab537          	lui	a0,0xaaaab
    2198:	aa950513          	addi	a0,a0,-1367 # aaaaaaa9 <_end+0xaaaa4da5>
    219c:	000105b7          	lui	a1,0x10
    21a0:	ffe58593          	addi	a1,a1,-2 # fffe <_end+0xa2fa>
    21a4:	00b53633          	sltu	a2,a0,a1
    21a8:	5cc72223          	sw	a2,1476(a4)

000021ac <inst_388>:
    21ac:	aaaab537          	lui	a0,0xaaaab
    21b0:	aa950513          	addi	a0,a0,-1367 # aaaaaaa9 <_end+0xaaaa4da5>
    21b4:	555555b7          	lui	a1,0x55555
    21b8:	55658593          	addi	a1,a1,1366 # 55555556 <_end+0x5554f852>
    21bc:	00b53633          	sltu	a2,a0,a1
    21c0:	5cc72423          	sw	a2,1480(a4)

000021c4 <inst_389>:
    21c4:	aaaab537          	lui	a0,0xaaaab
    21c8:	aa950513          	addi	a0,a0,-1367 # aaaaaaa9 <_end+0xaaaa4da5>
    21cc:	aaaab5b7          	lui	a1,0xaaaab
    21d0:	aab58593          	addi	a1,a1,-1365 # aaaaaaab <_end+0xaaaa4da7>
    21d4:	00b53633          	sltu	a2,a0,a1
    21d8:	5cc72623          	sw	a2,1484(a4)

000021dc <inst_390>:
    21dc:	aaaab537          	lui	a0,0xaaaab
    21e0:	aa950513          	addi	a0,a0,-1367 # aaaaaaa9 <_end+0xaaaa4da5>
    21e4:	00600593          	li	a1,6
    21e8:	00b53633          	sltu	a2,a0,a1
    21ec:	5cc72823          	sw	a2,1488(a4)

000021f0 <inst_391>:
    21f0:	aaaab537          	lui	a0,0xaaaab
    21f4:	aa950513          	addi	a0,a0,-1367 # aaaaaaa9 <_end+0xaaaa4da5>
    21f8:	333335b7          	lui	a1,0x33333
    21fc:	33458593          	addi	a1,a1,820 # 33333334 <_end+0x3332d630>
    2200:	00b53633          	sltu	a2,a0,a1
    2204:	5cc72a23          	sw	a2,1492(a4)

00002208 <inst_392>:
    2208:	aaaab537          	lui	a0,0xaaaab
    220c:	aa950513          	addi	a0,a0,-1367 # aaaaaaa9 <_end+0xaaaa4da5>
    2210:	666665b7          	lui	a1,0x66666
    2214:	66758593          	addi	a1,a1,1639 # 66666667 <_end+0x66660963>
    2218:	00b53633          	sltu	a2,a0,a1
    221c:	5cc72c23          	sw	a2,1496(a4)

00002220 <inst_393>:
    2220:	aaaab537          	lui	a0,0xaaaab
    2224:	aa950513          	addi	a0,a0,-1367 # aaaaaaa9 <_end+0xaaaa4da5>
    2228:	0000b5b7          	lui	a1,0xb
    222c:	50558593          	addi	a1,a1,1285 # b505 <_end+0x5801>
    2230:	00b53633          	sltu	a2,a0,a1
    2234:	5cc72e23          	sw	a2,1500(a4)

00002238 <inst_394>:
    2238:	aaaab537          	lui	a0,0xaaaab
    223c:	aa950513          	addi	a0,a0,-1367 # aaaaaaa9 <_end+0xaaaa4da5>
    2240:	00100593          	li	a1,1
    2244:	00b53633          	sltu	a2,a0,a1
    2248:	5ec72023          	sw	a2,1504(a4)

0000224c <inst_395>:
    224c:	aaaab537          	lui	a0,0xaaaab
    2250:	aa950513          	addi	a0,a0,-1367 # aaaaaaa9 <_end+0xaaaa4da5>
    2254:	000105b7          	lui	a1,0x10
    2258:	00b53633          	sltu	a2,a0,a1
    225c:	5ec72223          	sw	a2,1508(a4)

00002260 <inst_396>:
    2260:	00400513          	li	a0,4
    2264:	00300593          	li	a1,3
    2268:	00b53633          	sltu	a2,a0,a1
    226c:	5ec72423          	sw	a2,1512(a4)

00002270 <inst_397>:
    2270:	00400513          	li	a0,4
    2274:	555555b7          	lui	a1,0x55555
    2278:	55558593          	addi	a1,a1,1365 # 55555555 <_end+0x5554f851>
    227c:	00b53633          	sltu	a2,a0,a1
    2280:	5ec72623          	sw	a2,1516(a4)

00002284 <inst_398>:
    2284:	00400513          	li	a0,4
    2288:	aaaab5b7          	lui	a1,0xaaaab
    228c:	aaa58593          	addi	a1,a1,-1366 # aaaaaaaa <_end+0xaaaa4da6>
    2290:	00b53633          	sltu	a2,a0,a1
    2294:	5ec72823          	sw	a2,1520(a4)

00002298 <inst_399>:
    2298:	00400513          	li	a0,4
    229c:	00500593          	li	a1,5
    22a0:	00b53633          	sltu	a2,a0,a1
    22a4:	5ec72a23          	sw	a2,1524(a4)

000022a8 <inst_400>:
    22a8:	00400513          	li	a0,4
    22ac:	333335b7          	lui	a1,0x33333
    22b0:	33358593          	addi	a1,a1,819 # 33333333 <_end+0x3332d62f>
    22b4:	00b53633          	sltu	a2,a0,a1
    22b8:	5ec72c23          	sw	a2,1528(a4)

000022bc <inst_401>:
    22bc:	00400513          	li	a0,4
    22c0:	666665b7          	lui	a1,0x66666
    22c4:	66658593          	addi	a1,a1,1638 # 66666666 <_end+0x66660962>
    22c8:	00b53633          	sltu	a2,a0,a1
    22cc:	5ec72e23          	sw	a2,1532(a4)

000022d0 <inst_402>:
    22d0:	00400513          	li	a0,4
    22d4:	0000b5b7          	lui	a1,0xb
    22d8:	50458593          	addi	a1,a1,1284 # b504 <_end+0x5800>
    22dc:	00b53633          	sltu	a2,a0,a1
    22e0:	60c72023          	sw	a2,1536(a4)

000022e4 <inst_403>:
    22e4:	00400513          	li	a0,4
    22e8:	00000593          	li	a1,0
    22ec:	00b53633          	sltu	a2,a0,a1
    22f0:	60c72223          	sw	a2,1540(a4)

000022f4 <inst_404>:
    22f4:	00400513          	li	a0,4
    22f8:	000105b7          	lui	a1,0x10
    22fc:	fff58593          	addi	a1,a1,-1 # ffff <_end+0xa2fb>
    2300:	00b53633          	sltu	a2,a0,a1
    2304:	60c72423          	sw	a2,1544(a4)

00002308 <inst_405>:
    2308:	00400513          	li	a0,4
    230c:	555555b7          	lui	a1,0x55555
    2310:	55458593          	addi	a1,a1,1364 # 55555554 <_end+0x5554f850>
    2314:	00b53633          	sltu	a2,a0,a1
    2318:	60c72623          	sw	a2,1548(a4)

0000231c <inst_406>:
    231c:	00400513          	li	a0,4
    2320:	aaaab5b7          	lui	a1,0xaaaab
    2324:	aa958593          	addi	a1,a1,-1367 # aaaaaaa9 <_end+0xaaaa4da5>
    2328:	00b53633          	sltu	a2,a0,a1
    232c:	60c72823          	sw	a2,1552(a4)

00002330 <inst_407>:
    2330:	00400513          	li	a0,4
    2334:	00400593          	li	a1,4
    2338:	00b53633          	sltu	a2,a0,a1
    233c:	60c72a23          	sw	a2,1556(a4)

00002340 <inst_408>:
    2340:	00400513          	li	a0,4
    2344:	333335b7          	lui	a1,0x33333
    2348:	33258593          	addi	a1,a1,818 # 33333332 <_end+0x3332d62e>
    234c:	00b53633          	sltu	a2,a0,a1
    2350:	60c72c23          	sw	a2,1560(a4)

00002354 <inst_409>:
    2354:	00400513          	li	a0,4
    2358:	666665b7          	lui	a1,0x66666
    235c:	66558593          	addi	a1,a1,1637 # 66666665 <_end+0x66660961>
    2360:	00b53633          	sltu	a2,a0,a1
    2364:	60c72e23          	sw	a2,1564(a4)

00002368 <inst_410>:
    2368:	00400513          	li	a0,4
    236c:	0000b5b7          	lui	a1,0xb
    2370:	50358593          	addi	a1,a1,1283 # b503 <_end+0x57ff>
    2374:	00b53633          	sltu	a2,a0,a1
    2378:	62c72023          	sw	a2,1568(a4)

0000237c <inst_411>:
    237c:	00400513          	li	a0,4
    2380:	000105b7          	lui	a1,0x10
    2384:	ffe58593          	addi	a1,a1,-2 # fffe <_end+0xa2fa>
    2388:	00b53633          	sltu	a2,a0,a1
    238c:	62c72223          	sw	a2,1572(a4)

00002390 <inst_412>:
    2390:	00400513          	li	a0,4
    2394:	555555b7          	lui	a1,0x55555
    2398:	55658593          	addi	a1,a1,1366 # 55555556 <_end+0x5554f852>
    239c:	00b53633          	sltu	a2,a0,a1
    23a0:	62c72423          	sw	a2,1576(a4)

000023a4 <inst_413>:
    23a4:	00400513          	li	a0,4
    23a8:	aaaab5b7          	lui	a1,0xaaaab
    23ac:	aab58593          	addi	a1,a1,-1365 # aaaaaaab <_end+0xaaaa4da7>
    23b0:	00b53633          	sltu	a2,a0,a1
    23b4:	62c72623          	sw	a2,1580(a4)

000023b8 <inst_414>:
    23b8:	00400513          	li	a0,4
    23bc:	00600593          	li	a1,6
    23c0:	00b53633          	sltu	a2,a0,a1
    23c4:	62c72823          	sw	a2,1584(a4)

000023c8 <inst_415>:
    23c8:	00400513          	li	a0,4
    23cc:	333335b7          	lui	a1,0x33333
    23d0:	33458593          	addi	a1,a1,820 # 33333334 <_end+0x3332d630>
    23d4:	00b53633          	sltu	a2,a0,a1
    23d8:	62c72a23          	sw	a2,1588(a4)

000023dc <inst_416>:
    23dc:	00400513          	li	a0,4
    23e0:	666665b7          	lui	a1,0x66666
    23e4:	66758593          	addi	a1,a1,1639 # 66666667 <_end+0x66660963>
    23e8:	00b53633          	sltu	a2,a0,a1
    23ec:	62c72c23          	sw	a2,1592(a4)

000023f0 <inst_417>:
    23f0:	00400513          	li	a0,4
    23f4:	0000b5b7          	lui	a1,0xb
    23f8:	50558593          	addi	a1,a1,1285 # b505 <_end+0x5801>
    23fc:	00b53633          	sltu	a2,a0,a1
    2400:	62c72e23          	sw	a2,1596(a4)

00002404 <inst_418>:
    2404:	00400513          	li	a0,4
    2408:	00100593          	li	a1,1
    240c:	00b53633          	sltu	a2,a0,a1
    2410:	64c72023          	sw	a2,1600(a4)

00002414 <inst_419>:
    2414:	00400513          	li	a0,4
    2418:	000105b7          	lui	a1,0x10
    241c:	00b53633          	sltu	a2,a0,a1
    2420:	64c72223          	sw	a2,1604(a4)

00002424 <inst_420>:
    2424:	33333537          	lui	a0,0x33333
    2428:	33250513          	addi	a0,a0,818 # 33333332 <_end+0x3332d62e>
    242c:	00300593          	li	a1,3
    2430:	00b53633          	sltu	a2,a0,a1
    2434:	64c72423          	sw	a2,1608(a4)

00002438 <inst_421>:
    2438:	33333537          	lui	a0,0x33333
    243c:	33250513          	addi	a0,a0,818 # 33333332 <_end+0x3332d62e>
    2440:	555555b7          	lui	a1,0x55555
    2444:	55558593          	addi	a1,a1,1365 # 55555555 <_end+0x5554f851>
    2448:	00b53633          	sltu	a2,a0,a1
    244c:	64c72623          	sw	a2,1612(a4)

00002450 <inst_422>:
    2450:	33333537          	lui	a0,0x33333
    2454:	33250513          	addi	a0,a0,818 # 33333332 <_end+0x3332d62e>
    2458:	aaaab5b7          	lui	a1,0xaaaab
    245c:	aaa58593          	addi	a1,a1,-1366 # aaaaaaaa <_end+0xaaaa4da6>
    2460:	00b53633          	sltu	a2,a0,a1
    2464:	64c72823          	sw	a2,1616(a4)

00002468 <inst_423>:
    2468:	33333537          	lui	a0,0x33333
    246c:	33250513          	addi	a0,a0,818 # 33333332 <_end+0x3332d62e>
    2470:	00500593          	li	a1,5
    2474:	00b53633          	sltu	a2,a0,a1
    2478:	64c72a23          	sw	a2,1620(a4)

0000247c <inst_424>:
    247c:	33333537          	lui	a0,0x33333
    2480:	33250513          	addi	a0,a0,818 # 33333332 <_end+0x3332d62e>
    2484:	333335b7          	lui	a1,0x33333
    2488:	33358593          	addi	a1,a1,819 # 33333333 <_end+0x3332d62f>
    248c:	00b53633          	sltu	a2,a0,a1
    2490:	64c72c23          	sw	a2,1624(a4)

00002494 <inst_425>:
    2494:	33333537          	lui	a0,0x33333
    2498:	33250513          	addi	a0,a0,818 # 33333332 <_end+0x3332d62e>
    249c:	666665b7          	lui	a1,0x66666
    24a0:	66658593          	addi	a1,a1,1638 # 66666666 <_end+0x66660962>
    24a4:	00b53633          	sltu	a2,a0,a1
    24a8:	64c72e23          	sw	a2,1628(a4)

000024ac <inst_426>:
    24ac:	33333537          	lui	a0,0x33333
    24b0:	33250513          	addi	a0,a0,818 # 33333332 <_end+0x3332d62e>
    24b4:	0000b5b7          	lui	a1,0xb
    24b8:	50458593          	addi	a1,a1,1284 # b504 <_end+0x5800>
    24bc:	00b53633          	sltu	a2,a0,a1
    24c0:	66c72023          	sw	a2,1632(a4)

000024c4 <inst_427>:
    24c4:	33333537          	lui	a0,0x33333
    24c8:	33250513          	addi	a0,a0,818 # 33333332 <_end+0x3332d62e>
    24cc:	00000593          	li	a1,0
    24d0:	00b53633          	sltu	a2,a0,a1
    24d4:	66c72223          	sw	a2,1636(a4)

000024d8 <inst_428>:
    24d8:	33333537          	lui	a0,0x33333
    24dc:	33250513          	addi	a0,a0,818 # 33333332 <_end+0x3332d62e>
    24e0:	000105b7          	lui	a1,0x10
    24e4:	fff58593          	addi	a1,a1,-1 # ffff <_end+0xa2fb>
    24e8:	00b53633          	sltu	a2,a0,a1
    24ec:	66c72423          	sw	a2,1640(a4)

000024f0 <inst_429>:
    24f0:	33333537          	lui	a0,0x33333
    24f4:	33250513          	addi	a0,a0,818 # 33333332 <_end+0x3332d62e>
    24f8:	00200593          	li	a1,2
    24fc:	00b53633          	sltu	a2,a0,a1
    2500:	66c72623          	sw	a2,1644(a4)

00002504 <inst_430>:
    2504:	33333537          	lui	a0,0x33333
    2508:	33250513          	addi	a0,a0,818 # 33333332 <_end+0x3332d62e>
    250c:	555555b7          	lui	a1,0x55555
    2510:	55458593          	addi	a1,a1,1364 # 55555554 <_end+0x5554f850>
    2514:	00b53633          	sltu	a2,a0,a1
    2518:	66c72823          	sw	a2,1648(a4)

0000251c <inst_431>:
    251c:	33333537          	lui	a0,0x33333
    2520:	33250513          	addi	a0,a0,818 # 33333332 <_end+0x3332d62e>
    2524:	aaaab5b7          	lui	a1,0xaaaab
    2528:	aa958593          	addi	a1,a1,-1367 # aaaaaaa9 <_end+0xaaaa4da5>
    252c:	00b53633          	sltu	a2,a0,a1
    2530:	66c72a23          	sw	a2,1652(a4)

00002534 <inst_432>:
    2534:	33333537          	lui	a0,0x33333
    2538:	33250513          	addi	a0,a0,818 # 33333332 <_end+0x3332d62e>
    253c:	00400593          	li	a1,4
    2540:	00b53633          	sltu	a2,a0,a1
    2544:	66c72c23          	sw	a2,1656(a4)

00002548 <inst_433>:
    2548:	33333537          	lui	a0,0x33333
    254c:	33250513          	addi	a0,a0,818 # 33333332 <_end+0x3332d62e>
    2550:	333335b7          	lui	a1,0x33333
    2554:	33258593          	addi	a1,a1,818 # 33333332 <_end+0x3332d62e>
    2558:	00b53633          	sltu	a2,a0,a1
    255c:	66c72e23          	sw	a2,1660(a4)

00002560 <inst_434>:
    2560:	33333537          	lui	a0,0x33333
    2564:	33250513          	addi	a0,a0,818 # 33333332 <_end+0x3332d62e>
    2568:	666665b7          	lui	a1,0x66666
    256c:	66558593          	addi	a1,a1,1637 # 66666665 <_end+0x66660961>
    2570:	00b53633          	sltu	a2,a0,a1
    2574:	68c72023          	sw	a2,1664(a4)

00002578 <inst_435>:
    2578:	33333537          	lui	a0,0x33333
    257c:	33250513          	addi	a0,a0,818 # 33333332 <_end+0x3332d62e>
    2580:	0000b5b7          	lui	a1,0xb
    2584:	50358593          	addi	a1,a1,1283 # b503 <_end+0x57ff>
    2588:	00b53633          	sltu	a2,a0,a1
    258c:	68c72223          	sw	a2,1668(a4)

00002590 <inst_436>:
    2590:	33333537          	lui	a0,0x33333
    2594:	33250513          	addi	a0,a0,818 # 33333332 <_end+0x3332d62e>
    2598:	000105b7          	lui	a1,0x10
    259c:	ffe58593          	addi	a1,a1,-2 # fffe <_end+0xa2fa>
    25a0:	00b53633          	sltu	a2,a0,a1
    25a4:	68c72423          	sw	a2,1672(a4)

000025a8 <inst_437>:
    25a8:	33333537          	lui	a0,0x33333
    25ac:	33250513          	addi	a0,a0,818 # 33333332 <_end+0x3332d62e>
    25b0:	555555b7          	lui	a1,0x55555
    25b4:	55658593          	addi	a1,a1,1366 # 55555556 <_end+0x5554f852>
    25b8:	00b53633          	sltu	a2,a0,a1
    25bc:	68c72623          	sw	a2,1676(a4)

000025c0 <inst_438>:
    25c0:	33333537          	lui	a0,0x33333
    25c4:	33250513          	addi	a0,a0,818 # 33333332 <_end+0x3332d62e>
    25c8:	aaaab5b7          	lui	a1,0xaaaab
    25cc:	aab58593          	addi	a1,a1,-1365 # aaaaaaab <_end+0xaaaa4da7>
    25d0:	00b53633          	sltu	a2,a0,a1
    25d4:	68c72823          	sw	a2,1680(a4)

000025d8 <inst_439>:
    25d8:	33333537          	lui	a0,0x33333
    25dc:	33250513          	addi	a0,a0,818 # 33333332 <_end+0x3332d62e>
    25e0:	00600593          	li	a1,6
    25e4:	00b53633          	sltu	a2,a0,a1
    25e8:	68c72a23          	sw	a2,1684(a4)

000025ec <inst_440>:
    25ec:	33333537          	lui	a0,0x33333
    25f0:	33250513          	addi	a0,a0,818 # 33333332 <_end+0x3332d62e>
    25f4:	333335b7          	lui	a1,0x33333
    25f8:	33458593          	addi	a1,a1,820 # 33333334 <_end+0x3332d630>
    25fc:	00b53633          	sltu	a2,a0,a1
    2600:	68c72c23          	sw	a2,1688(a4)

00002604 <inst_441>:
    2604:	33333537          	lui	a0,0x33333
    2608:	33250513          	addi	a0,a0,818 # 33333332 <_end+0x3332d62e>
    260c:	666665b7          	lui	a1,0x66666
    2610:	66758593          	addi	a1,a1,1639 # 66666667 <_end+0x66660963>
    2614:	00b53633          	sltu	a2,a0,a1
    2618:	68c72e23          	sw	a2,1692(a4)

0000261c <inst_442>:
    261c:	33333537          	lui	a0,0x33333
    2620:	33250513          	addi	a0,a0,818 # 33333332 <_end+0x3332d62e>
    2624:	0000b5b7          	lui	a1,0xb
    2628:	50558593          	addi	a1,a1,1285 # b505 <_end+0x5801>
    262c:	00b53633          	sltu	a2,a0,a1
    2630:	6ac72023          	sw	a2,1696(a4)

00002634 <inst_443>:
    2634:	33333537          	lui	a0,0x33333
    2638:	33250513          	addi	a0,a0,818 # 33333332 <_end+0x3332d62e>
    263c:	00100593          	li	a1,1
    2640:	00b53633          	sltu	a2,a0,a1
    2644:	6ac72223          	sw	a2,1700(a4)

00002648 <inst_444>:
    2648:	33333537          	lui	a0,0x33333
    264c:	33250513          	addi	a0,a0,818 # 33333332 <_end+0x3332d62e>
    2650:	000105b7          	lui	a1,0x10
    2654:	00b53633          	sltu	a2,a0,a1
    2658:	6ac72423          	sw	a2,1704(a4)

0000265c <inst_445>:
    265c:	66666537          	lui	a0,0x66666
    2660:	66550513          	addi	a0,a0,1637 # 66666665 <_end+0x66660961>
    2664:	00300593          	li	a1,3
    2668:	00b53633          	sltu	a2,a0,a1
    266c:	6ac72623          	sw	a2,1708(a4)

00002670 <inst_446>:
    2670:	66666537          	lui	a0,0x66666
    2674:	66550513          	addi	a0,a0,1637 # 66666665 <_end+0x66660961>
    2678:	555555b7          	lui	a1,0x55555
    267c:	55558593          	addi	a1,a1,1365 # 55555555 <_end+0x5554f851>
    2680:	00b53633          	sltu	a2,a0,a1
    2684:	6ac72823          	sw	a2,1712(a4)

00002688 <inst_447>:
    2688:	66666537          	lui	a0,0x66666
    268c:	66550513          	addi	a0,a0,1637 # 66666665 <_end+0x66660961>
    2690:	aaaab5b7          	lui	a1,0xaaaab
    2694:	aaa58593          	addi	a1,a1,-1366 # aaaaaaaa <_end+0xaaaa4da6>
    2698:	00b53633          	sltu	a2,a0,a1
    269c:	6ac72a23          	sw	a2,1716(a4)

000026a0 <inst_448>:
    26a0:	66666537          	lui	a0,0x66666
    26a4:	66550513          	addi	a0,a0,1637 # 66666665 <_end+0x66660961>
    26a8:	00500593          	li	a1,5
    26ac:	00b53633          	sltu	a2,a0,a1
    26b0:	6ac72c23          	sw	a2,1720(a4)

000026b4 <inst_449>:
    26b4:	66666537          	lui	a0,0x66666
    26b8:	66550513          	addi	a0,a0,1637 # 66666665 <_end+0x66660961>
    26bc:	333335b7          	lui	a1,0x33333
    26c0:	33358593          	addi	a1,a1,819 # 33333333 <_end+0x3332d62f>
    26c4:	00b53633          	sltu	a2,a0,a1
    26c8:	6ac72e23          	sw	a2,1724(a4)

000026cc <inst_450>:
    26cc:	66666537          	lui	a0,0x66666
    26d0:	66550513          	addi	a0,a0,1637 # 66666665 <_end+0x66660961>
    26d4:	666665b7          	lui	a1,0x66666
    26d8:	66658593          	addi	a1,a1,1638 # 66666666 <_end+0x66660962>
    26dc:	00b53633          	sltu	a2,a0,a1
    26e0:	6cc72023          	sw	a2,1728(a4)

000026e4 <inst_451>:
    26e4:	66666537          	lui	a0,0x66666
    26e8:	66550513          	addi	a0,a0,1637 # 66666665 <_end+0x66660961>
    26ec:	0000b5b7          	lui	a1,0xb
    26f0:	50458593          	addi	a1,a1,1284 # b504 <_end+0x5800>
    26f4:	00b53633          	sltu	a2,a0,a1
    26f8:	6cc72223          	sw	a2,1732(a4)

000026fc <inst_452>:
    26fc:	66666537          	lui	a0,0x66666
    2700:	66550513          	addi	a0,a0,1637 # 66666665 <_end+0x66660961>
    2704:	00000593          	li	a1,0
    2708:	00b53633          	sltu	a2,a0,a1
    270c:	6cc72423          	sw	a2,1736(a4)

00002710 <inst_453>:
    2710:	66666537          	lui	a0,0x66666
    2714:	66550513          	addi	a0,a0,1637 # 66666665 <_end+0x66660961>
    2718:	000105b7          	lui	a1,0x10
    271c:	fff58593          	addi	a1,a1,-1 # ffff <_end+0xa2fb>
    2720:	00b53633          	sltu	a2,a0,a1
    2724:	6cc72623          	sw	a2,1740(a4)

00002728 <inst_454>:
    2728:	66666537          	lui	a0,0x66666
    272c:	66550513          	addi	a0,a0,1637 # 66666665 <_end+0x66660961>
    2730:	00200593          	li	a1,2
    2734:	00b53633          	sltu	a2,a0,a1
    2738:	6cc72823          	sw	a2,1744(a4)

0000273c <inst_455>:
    273c:	66666537          	lui	a0,0x66666
    2740:	66550513          	addi	a0,a0,1637 # 66666665 <_end+0x66660961>
    2744:	555555b7          	lui	a1,0x55555
    2748:	55458593          	addi	a1,a1,1364 # 55555554 <_end+0x5554f850>
    274c:	00b53633          	sltu	a2,a0,a1
    2750:	6cc72a23          	sw	a2,1748(a4)

00002754 <inst_456>:
    2754:	66666537          	lui	a0,0x66666
    2758:	66550513          	addi	a0,a0,1637 # 66666665 <_end+0x66660961>
    275c:	aaaab5b7          	lui	a1,0xaaaab
    2760:	aa958593          	addi	a1,a1,-1367 # aaaaaaa9 <_end+0xaaaa4da5>
    2764:	00b53633          	sltu	a2,a0,a1
    2768:	6cc72c23          	sw	a2,1752(a4)

0000276c <inst_457>:
    276c:	66666537          	lui	a0,0x66666
    2770:	66550513          	addi	a0,a0,1637 # 66666665 <_end+0x66660961>
    2774:	00400593          	li	a1,4
    2778:	00b53633          	sltu	a2,a0,a1
    277c:	6cc72e23          	sw	a2,1756(a4)

00002780 <inst_458>:
    2780:	66666537          	lui	a0,0x66666
    2784:	66550513          	addi	a0,a0,1637 # 66666665 <_end+0x66660961>
    2788:	333335b7          	lui	a1,0x33333
    278c:	33258593          	addi	a1,a1,818 # 33333332 <_end+0x3332d62e>
    2790:	00b53633          	sltu	a2,a0,a1
    2794:	6ec72023          	sw	a2,1760(a4)

00002798 <inst_459>:
    2798:	66666537          	lui	a0,0x66666
    279c:	66550513          	addi	a0,a0,1637 # 66666665 <_end+0x66660961>
    27a0:	666665b7          	lui	a1,0x66666
    27a4:	66558593          	addi	a1,a1,1637 # 66666665 <_end+0x66660961>
    27a8:	00b53633          	sltu	a2,a0,a1
    27ac:	6ec72223          	sw	a2,1764(a4)

000027b0 <inst_460>:
    27b0:	66666537          	lui	a0,0x66666
    27b4:	66550513          	addi	a0,a0,1637 # 66666665 <_end+0x66660961>
    27b8:	0000b5b7          	lui	a1,0xb
    27bc:	50358593          	addi	a1,a1,1283 # b503 <_end+0x57ff>
    27c0:	00b53633          	sltu	a2,a0,a1
    27c4:	6ec72423          	sw	a2,1768(a4)

000027c8 <inst_461>:
    27c8:	66666537          	lui	a0,0x66666
    27cc:	66550513          	addi	a0,a0,1637 # 66666665 <_end+0x66660961>
    27d0:	000105b7          	lui	a1,0x10
    27d4:	ffe58593          	addi	a1,a1,-2 # fffe <_end+0xa2fa>
    27d8:	00b53633          	sltu	a2,a0,a1
    27dc:	6ec72623          	sw	a2,1772(a4)

000027e0 <inst_462>:
    27e0:	66666537          	lui	a0,0x66666
    27e4:	66550513          	addi	a0,a0,1637 # 66666665 <_end+0x66660961>
    27e8:	555555b7          	lui	a1,0x55555
    27ec:	55658593          	addi	a1,a1,1366 # 55555556 <_end+0x5554f852>
    27f0:	00b53633          	sltu	a2,a0,a1
    27f4:	6ec72823          	sw	a2,1776(a4)

000027f8 <inst_463>:
    27f8:	66666537          	lui	a0,0x66666
    27fc:	66550513          	addi	a0,a0,1637 # 66666665 <_end+0x66660961>
    2800:	00100593          	li	a1,1
    2804:	00b53633          	sltu	a2,a0,a1
    2808:	6ec72a23          	sw	a2,1780(a4)

0000280c <inst_464>:
    280c:	66666537          	lui	a0,0x66666
    2810:	66550513          	addi	a0,a0,1637 # 66666665 <_end+0x66660961>
    2814:	000105b7          	lui	a1,0x10
    2818:	00b53633          	sltu	a2,a0,a1
    281c:	6ec72c23          	sw	a2,1784(a4)

00002820 <inst_465>:
    2820:	0000b537          	lui	a0,0xb
    2824:	50350513          	addi	a0,a0,1283 # b503 <_end+0x57ff>
    2828:	00300593          	li	a1,3
    282c:	00b53633          	sltu	a2,a0,a1
    2830:	6ec72e23          	sw	a2,1788(a4)

00002834 <inst_466>:
    2834:	0000b537          	lui	a0,0xb
    2838:	50350513          	addi	a0,a0,1283 # b503 <_end+0x57ff>
    283c:	555555b7          	lui	a1,0x55555
    2840:	55558593          	addi	a1,a1,1365 # 55555555 <_end+0x5554f851>
    2844:	00b53633          	sltu	a2,a0,a1
    2848:	70c72023          	sw	a2,1792(a4)

0000284c <inst_467>:
    284c:	0000b537          	lui	a0,0xb
    2850:	50350513          	addi	a0,a0,1283 # b503 <_end+0x57ff>
    2854:	aaaab5b7          	lui	a1,0xaaaab
    2858:	aaa58593          	addi	a1,a1,-1366 # aaaaaaaa <_end+0xaaaa4da6>
    285c:	00b53633          	sltu	a2,a0,a1
    2860:	70c72223          	sw	a2,1796(a4)

00002864 <inst_468>:
    2864:	0000b537          	lui	a0,0xb
    2868:	50350513          	addi	a0,a0,1283 # b503 <_end+0x57ff>
    286c:	00500593          	li	a1,5
    2870:	00b53633          	sltu	a2,a0,a1
    2874:	70c72423          	sw	a2,1800(a4)

00002878 <inst_469>:
    2878:	0000b537          	lui	a0,0xb
    287c:	50350513          	addi	a0,a0,1283 # b503 <_end+0x57ff>
    2880:	333335b7          	lui	a1,0x33333
    2884:	33358593          	addi	a1,a1,819 # 33333333 <_end+0x3332d62f>
    2888:	00b53633          	sltu	a2,a0,a1
    288c:	70c72623          	sw	a2,1804(a4)

00002890 <inst_470>:
    2890:	0000b537          	lui	a0,0xb
    2894:	50350513          	addi	a0,a0,1283 # b503 <_end+0x57ff>
    2898:	666665b7          	lui	a1,0x66666
    289c:	66658593          	addi	a1,a1,1638 # 66666666 <_end+0x66660962>
    28a0:	00b53633          	sltu	a2,a0,a1
    28a4:	70c72823          	sw	a2,1808(a4)

000028a8 <inst_471>:
    28a8:	0000b537          	lui	a0,0xb
    28ac:	50350513          	addi	a0,a0,1283 # b503 <_end+0x57ff>
    28b0:	0000b5b7          	lui	a1,0xb
    28b4:	50458593          	addi	a1,a1,1284 # b504 <_end+0x5800>
    28b8:	00b53633          	sltu	a2,a0,a1
    28bc:	70c72a23          	sw	a2,1812(a4)

000028c0 <inst_472>:
    28c0:	0000b537          	lui	a0,0xb
    28c4:	50350513          	addi	a0,a0,1283 # b503 <_end+0x57ff>
    28c8:	00000593          	li	a1,0
    28cc:	00b53633          	sltu	a2,a0,a1
    28d0:	70c72c23          	sw	a2,1816(a4)

000028d4 <inst_473>:
    28d4:	0000b537          	lui	a0,0xb
    28d8:	50350513          	addi	a0,a0,1283 # b503 <_end+0x57ff>
    28dc:	000105b7          	lui	a1,0x10
    28e0:	fff58593          	addi	a1,a1,-1 # ffff <_end+0xa2fb>
    28e4:	00b53633          	sltu	a2,a0,a1
    28e8:	70c72e23          	sw	a2,1820(a4)

000028ec <inst_474>:
    28ec:	0000b537          	lui	a0,0xb
    28f0:	50350513          	addi	a0,a0,1283 # b503 <_end+0x57ff>
    28f4:	00200593          	li	a1,2
    28f8:	00b53633          	sltu	a2,a0,a1
    28fc:	72c72023          	sw	a2,1824(a4)

00002900 <inst_475>:
    2900:	0000b537          	lui	a0,0xb
    2904:	50350513          	addi	a0,a0,1283 # b503 <_end+0x57ff>
    2908:	555555b7          	lui	a1,0x55555
    290c:	55458593          	addi	a1,a1,1364 # 55555554 <_end+0x5554f850>
    2910:	00b53633          	sltu	a2,a0,a1
    2914:	72c72223          	sw	a2,1828(a4)

00002918 <inst_476>:
    2918:	0000b537          	lui	a0,0xb
    291c:	50350513          	addi	a0,a0,1283 # b503 <_end+0x57ff>
    2920:	aaaab5b7          	lui	a1,0xaaaab
    2924:	aa958593          	addi	a1,a1,-1367 # aaaaaaa9 <_end+0xaaaa4da5>
    2928:	00b53633          	sltu	a2,a0,a1
    292c:	72c72423          	sw	a2,1832(a4)

00002930 <inst_477>:
    2930:	0000b537          	lui	a0,0xb
    2934:	50350513          	addi	a0,a0,1283 # b503 <_end+0x57ff>
    2938:	00400593          	li	a1,4
    293c:	00b53633          	sltu	a2,a0,a1
    2940:	72c72623          	sw	a2,1836(a4)

00002944 <inst_478>:
    2944:	0000b537          	lui	a0,0xb
    2948:	50350513          	addi	a0,a0,1283 # b503 <_end+0x57ff>
    294c:	333335b7          	lui	a1,0x33333
    2950:	33258593          	addi	a1,a1,818 # 33333332 <_end+0x3332d62e>
    2954:	00b53633          	sltu	a2,a0,a1
    2958:	72c72823          	sw	a2,1840(a4)

0000295c <inst_479>:
    295c:	0000b537          	lui	a0,0xb
    2960:	50350513          	addi	a0,a0,1283 # b503 <_end+0x57ff>
    2964:	666665b7          	lui	a1,0x66666
    2968:	66558593          	addi	a1,a1,1637 # 66666665 <_end+0x66660961>
    296c:	00b53633          	sltu	a2,a0,a1
    2970:	72c72a23          	sw	a2,1844(a4)

00002974 <inst_480>:
    2974:	0000b537          	lui	a0,0xb
    2978:	50350513          	addi	a0,a0,1283 # b503 <_end+0x57ff>
    297c:	0000b5b7          	lui	a1,0xb
    2980:	50358593          	addi	a1,a1,1283 # b503 <_end+0x57ff>
    2984:	00b53633          	sltu	a2,a0,a1
    2988:	72c72c23          	sw	a2,1848(a4)

0000298c <inst_481>:
    298c:	0000b537          	lui	a0,0xb
    2990:	50350513          	addi	a0,a0,1283 # b503 <_end+0x57ff>
    2994:	000105b7          	lui	a1,0x10
    2998:	ffe58593          	addi	a1,a1,-2 # fffe <_end+0xa2fa>
    299c:	00b53633          	sltu	a2,a0,a1
    29a0:	72c72e23          	sw	a2,1852(a4)

000029a4 <inst_482>:
    29a4:	0000b537          	lui	a0,0xb
    29a8:	50350513          	addi	a0,a0,1283 # b503 <_end+0x57ff>
    29ac:	555555b7          	lui	a1,0x55555
    29b0:	55658593          	addi	a1,a1,1366 # 55555556 <_end+0x5554f852>
    29b4:	00b53633          	sltu	a2,a0,a1
    29b8:	74c72023          	sw	a2,1856(a4)

000029bc <inst_483>:
    29bc:	0000b537          	lui	a0,0xb
    29c0:	50350513          	addi	a0,a0,1283 # b503 <_end+0x57ff>
    29c4:	aaaab5b7          	lui	a1,0xaaaab
    29c8:	aab58593          	addi	a1,a1,-1365 # aaaaaaab <_end+0xaaaa4da7>
    29cc:	00b53633          	sltu	a2,a0,a1
    29d0:	74c72223          	sw	a2,1860(a4)

000029d4 <inst_484>:
    29d4:	0000b537          	lui	a0,0xb
    29d8:	50350513          	addi	a0,a0,1283 # b503 <_end+0x57ff>
    29dc:	00600593          	li	a1,6
    29e0:	00b53633          	sltu	a2,a0,a1
    29e4:	74c72423          	sw	a2,1864(a4)

000029e8 <inst_485>:
    29e8:	0000b537          	lui	a0,0xb
    29ec:	50350513          	addi	a0,a0,1283 # b503 <_end+0x57ff>
    29f0:	333335b7          	lui	a1,0x33333
    29f4:	33458593          	addi	a1,a1,820 # 33333334 <_end+0x3332d630>
    29f8:	00b53633          	sltu	a2,a0,a1
    29fc:	74c72623          	sw	a2,1868(a4)

00002a00 <inst_486>:
    2a00:	0000b537          	lui	a0,0xb
    2a04:	50350513          	addi	a0,a0,1283 # b503 <_end+0x57ff>
    2a08:	666665b7          	lui	a1,0x66666
    2a0c:	66758593          	addi	a1,a1,1639 # 66666667 <_end+0x66660963>
    2a10:	00b53633          	sltu	a2,a0,a1
    2a14:	74c72823          	sw	a2,1872(a4)

00002a18 <inst_487>:
    2a18:	0000b537          	lui	a0,0xb
    2a1c:	50350513          	addi	a0,a0,1283 # b503 <_end+0x57ff>
    2a20:	0000b5b7          	lui	a1,0xb
    2a24:	50558593          	addi	a1,a1,1285 # b505 <_end+0x5801>
    2a28:	00b53633          	sltu	a2,a0,a1
    2a2c:	74c72a23          	sw	a2,1876(a4)

00002a30 <inst_488>:
    2a30:	0000b537          	lui	a0,0xb
    2a34:	50350513          	addi	a0,a0,1283 # b503 <_end+0x57ff>
    2a38:	00100593          	li	a1,1
    2a3c:	00b53633          	sltu	a2,a0,a1
    2a40:	74c72c23          	sw	a2,1880(a4)

00002a44 <inst_489>:
    2a44:	0000b537          	lui	a0,0xb
    2a48:	50350513          	addi	a0,a0,1283 # b503 <_end+0x57ff>
    2a4c:	000105b7          	lui	a1,0x10
    2a50:	00b53633          	sltu	a2,a0,a1
    2a54:	74c72e23          	sw	a2,1884(a4)

00002a58 <inst_490>:
    2a58:	00010537          	lui	a0,0x10
    2a5c:	ffe50513          	addi	a0,a0,-2 # fffe <_end+0xa2fa>
    2a60:	00300593          	li	a1,3
    2a64:	00b53633          	sltu	a2,a0,a1
    2a68:	76c72023          	sw	a2,1888(a4)

00002a6c <inst_491>:
    2a6c:	00010537          	lui	a0,0x10
    2a70:	ffe50513          	addi	a0,a0,-2 # fffe <_end+0xa2fa>
    2a74:	555555b7          	lui	a1,0x55555
    2a78:	55558593          	addi	a1,a1,1365 # 55555555 <_end+0x5554f851>
    2a7c:	00b53633          	sltu	a2,a0,a1
    2a80:	76c72223          	sw	a2,1892(a4)

00002a84 <inst_492>:
    2a84:	00010537          	lui	a0,0x10
    2a88:	ffe50513          	addi	a0,a0,-2 # fffe <_end+0xa2fa>
    2a8c:	aaaab5b7          	lui	a1,0xaaaab
    2a90:	aaa58593          	addi	a1,a1,-1366 # aaaaaaaa <_end+0xaaaa4da6>
    2a94:	00b53633          	sltu	a2,a0,a1
    2a98:	76c72423          	sw	a2,1896(a4)

00002a9c <inst_493>:
    2a9c:	00010537          	lui	a0,0x10
    2aa0:	ffe50513          	addi	a0,a0,-2 # fffe <_end+0xa2fa>
    2aa4:	00500593          	li	a1,5
    2aa8:	00b53633          	sltu	a2,a0,a1
    2aac:	76c72623          	sw	a2,1900(a4)

00002ab0 <inst_494>:
    2ab0:	00010537          	lui	a0,0x10
    2ab4:	ffe50513          	addi	a0,a0,-2 # fffe <_end+0xa2fa>
    2ab8:	333335b7          	lui	a1,0x33333
    2abc:	33358593          	addi	a1,a1,819 # 33333333 <_end+0x3332d62f>
    2ac0:	00b53633          	sltu	a2,a0,a1
    2ac4:	76c72823          	sw	a2,1904(a4)

00002ac8 <inst_495>:
    2ac8:	00010537          	lui	a0,0x10
    2acc:	ffe50513          	addi	a0,a0,-2 # fffe <_end+0xa2fa>
    2ad0:	666665b7          	lui	a1,0x66666
    2ad4:	66658593          	addi	a1,a1,1638 # 66666666 <_end+0x66660962>
    2ad8:	00b53633          	sltu	a2,a0,a1
    2adc:	76c72a23          	sw	a2,1908(a4)

00002ae0 <inst_496>:
    2ae0:	00010537          	lui	a0,0x10
    2ae4:	ffe50513          	addi	a0,a0,-2 # fffe <_end+0xa2fa>
    2ae8:	0000b5b7          	lui	a1,0xb
    2aec:	50458593          	addi	a1,a1,1284 # b504 <_end+0x5800>
    2af0:	00b53633          	sltu	a2,a0,a1
    2af4:	76c72c23          	sw	a2,1912(a4)

00002af8 <inst_497>:
    2af8:	00010537          	lui	a0,0x10
    2afc:	ffe50513          	addi	a0,a0,-2 # fffe <_end+0xa2fa>
    2b00:	00000593          	li	a1,0
    2b04:	00b53633          	sltu	a2,a0,a1
    2b08:	76c72e23          	sw	a2,1916(a4)

00002b0c <inst_498>:
    2b0c:	00010537          	lui	a0,0x10
    2b10:	ffe50513          	addi	a0,a0,-2 # fffe <_end+0xa2fa>
    2b14:	000105b7          	lui	a1,0x10
    2b18:	fff58593          	addi	a1,a1,-1 # ffff <_end+0xa2fb>
    2b1c:	00b53633          	sltu	a2,a0,a1
    2b20:	78c72023          	sw	a2,1920(a4)

00002b24 <inst_499>:
    2b24:	00010537          	lui	a0,0x10
    2b28:	ffe50513          	addi	a0,a0,-2 # fffe <_end+0xa2fa>
    2b2c:	00200593          	li	a1,2
    2b30:	00b53633          	sltu	a2,a0,a1
    2b34:	78c72223          	sw	a2,1924(a4)

00002b38 <inst_500>:
    2b38:	00010537          	lui	a0,0x10
    2b3c:	ffe50513          	addi	a0,a0,-2 # fffe <_end+0xa2fa>
    2b40:	555555b7          	lui	a1,0x55555
    2b44:	55458593          	addi	a1,a1,1364 # 55555554 <_end+0x5554f850>
    2b48:	00b53633          	sltu	a2,a0,a1
    2b4c:	78c72423          	sw	a2,1928(a4)

00002b50 <inst_501>:
    2b50:	00010537          	lui	a0,0x10
    2b54:	ffe50513          	addi	a0,a0,-2 # fffe <_end+0xa2fa>
    2b58:	aaaab5b7          	lui	a1,0xaaaab
    2b5c:	aa958593          	addi	a1,a1,-1367 # aaaaaaa9 <_end+0xaaaa4da5>
    2b60:	00b53633          	sltu	a2,a0,a1
    2b64:	78c72623          	sw	a2,1932(a4)

00002b68 <inst_502>:
    2b68:	00010537          	lui	a0,0x10
    2b6c:	ffe50513          	addi	a0,a0,-2 # fffe <_end+0xa2fa>
    2b70:	00400593          	li	a1,4
    2b74:	00b53633          	sltu	a2,a0,a1
    2b78:	78c72823          	sw	a2,1936(a4)

00002b7c <inst_503>:
    2b7c:	00010537          	lui	a0,0x10
    2b80:	ffe50513          	addi	a0,a0,-2 # fffe <_end+0xa2fa>
    2b84:	333335b7          	lui	a1,0x33333
    2b88:	33258593          	addi	a1,a1,818 # 33333332 <_end+0x3332d62e>
    2b8c:	00b53633          	sltu	a2,a0,a1
    2b90:	78c72a23          	sw	a2,1940(a4)

00002b94 <inst_504>:
    2b94:	00010537          	lui	a0,0x10
    2b98:	ffe50513          	addi	a0,a0,-2 # fffe <_end+0xa2fa>
    2b9c:	666665b7          	lui	a1,0x66666
    2ba0:	66558593          	addi	a1,a1,1637 # 66666665 <_end+0x66660961>
    2ba4:	00b53633          	sltu	a2,a0,a1
    2ba8:	78c72c23          	sw	a2,1944(a4)

00002bac <inst_505>:
    2bac:	00010537          	lui	a0,0x10
    2bb0:	ffe50513          	addi	a0,a0,-2 # fffe <_end+0xa2fa>
    2bb4:	0000b5b7          	lui	a1,0xb
    2bb8:	50358593          	addi	a1,a1,1283 # b503 <_end+0x57ff>
    2bbc:	00b53633          	sltu	a2,a0,a1
    2bc0:	78c72e23          	sw	a2,1948(a4)

00002bc4 <inst_506>:
    2bc4:	00010537          	lui	a0,0x10
    2bc8:	ffe50513          	addi	a0,a0,-2 # fffe <_end+0xa2fa>
    2bcc:	000105b7          	lui	a1,0x10
    2bd0:	ffe58593          	addi	a1,a1,-2 # fffe <_end+0xa2fa>
    2bd4:	00b53633          	sltu	a2,a0,a1
    2bd8:	7ac72023          	sw	a2,1952(a4)

00002bdc <inst_507>:
    2bdc:	00010537          	lui	a0,0x10
    2be0:	ffe50513          	addi	a0,a0,-2 # fffe <_end+0xa2fa>
    2be4:	555555b7          	lui	a1,0x55555
    2be8:	55658593          	addi	a1,a1,1366 # 55555556 <_end+0x5554f852>
    2bec:	00b53633          	sltu	a2,a0,a1
    2bf0:	7ac72223          	sw	a2,1956(a4)

00002bf4 <inst_508>:
    2bf4:	00010537          	lui	a0,0x10
    2bf8:	ffe50513          	addi	a0,a0,-2 # fffe <_end+0xa2fa>
    2bfc:	aaaab5b7          	lui	a1,0xaaaab
    2c00:	aab58593          	addi	a1,a1,-1365 # aaaaaaab <_end+0xaaaa4da7>
    2c04:	00b53633          	sltu	a2,a0,a1
    2c08:	7ac72423          	sw	a2,1960(a4)

00002c0c <inst_509>:
    2c0c:	00010537          	lui	a0,0x10
    2c10:	ffe50513          	addi	a0,a0,-2 # fffe <_end+0xa2fa>
    2c14:	00600593          	li	a1,6
    2c18:	00b53633          	sltu	a2,a0,a1
    2c1c:	7ac72623          	sw	a2,1964(a4)

00002c20 <inst_510>:
    2c20:	00010537          	lui	a0,0x10
    2c24:	ffe50513          	addi	a0,a0,-2 # fffe <_end+0xa2fa>
    2c28:	333335b7          	lui	a1,0x33333
    2c2c:	33458593          	addi	a1,a1,820 # 33333334 <_end+0x3332d630>
    2c30:	00b53633          	sltu	a2,a0,a1
    2c34:	7ac72823          	sw	a2,1968(a4)

00002c38 <inst_511>:
    2c38:	00010537          	lui	a0,0x10
    2c3c:	ffe50513          	addi	a0,a0,-2 # fffe <_end+0xa2fa>
    2c40:	666665b7          	lui	a1,0x66666
    2c44:	66758593          	addi	a1,a1,1639 # 66666667 <_end+0x66660963>
    2c48:	00b53633          	sltu	a2,a0,a1
    2c4c:	7ac72a23          	sw	a2,1972(a4)

00002c50 <inst_512>:
    2c50:	00010537          	lui	a0,0x10
    2c54:	ffe50513          	addi	a0,a0,-2 # fffe <_end+0xa2fa>
    2c58:	0000b5b7          	lui	a1,0xb
    2c5c:	50558593          	addi	a1,a1,1285 # b505 <_end+0x5801>
    2c60:	00b53633          	sltu	a2,a0,a1
    2c64:	7ac72c23          	sw	a2,1976(a4)

00002c68 <inst_513>:
    2c68:	00010537          	lui	a0,0x10
    2c6c:	ffe50513          	addi	a0,a0,-2 # fffe <_end+0xa2fa>
    2c70:	00100593          	li	a1,1
    2c74:	00b53633          	sltu	a2,a0,a1
    2c78:	7ac72e23          	sw	a2,1980(a4)

00002c7c <inst_514>:
    2c7c:	00010537          	lui	a0,0x10
    2c80:	ffe50513          	addi	a0,a0,-2 # fffe <_end+0xa2fa>
    2c84:	000105b7          	lui	a1,0x10
    2c88:	00b53633          	sltu	a2,a0,a1
    2c8c:	7cc72023          	sw	a2,1984(a4)

00002c90 <inst_515>:
    2c90:	55555537          	lui	a0,0x55555
    2c94:	55650513          	addi	a0,a0,1366 # 55555556 <_end+0x5554f852>
    2c98:	00300593          	li	a1,3
    2c9c:	00b53633          	sltu	a2,a0,a1
    2ca0:	7cc72223          	sw	a2,1988(a4)

00002ca4 <inst_516>:
    2ca4:	55555537          	lui	a0,0x55555
    2ca8:	55650513          	addi	a0,a0,1366 # 55555556 <_end+0x5554f852>
    2cac:	555555b7          	lui	a1,0x55555
    2cb0:	55558593          	addi	a1,a1,1365 # 55555555 <_end+0x5554f851>
    2cb4:	00b53633          	sltu	a2,a0,a1
    2cb8:	7cc72423          	sw	a2,1992(a4)

00002cbc <inst_517>:
    2cbc:	55555537          	lui	a0,0x55555
    2cc0:	55650513          	addi	a0,a0,1366 # 55555556 <_end+0x5554f852>
    2cc4:	aaaab5b7          	lui	a1,0xaaaab
    2cc8:	aaa58593          	addi	a1,a1,-1366 # aaaaaaaa <_end+0xaaaa4da6>
    2ccc:	00b53633          	sltu	a2,a0,a1
    2cd0:	7cc72623          	sw	a2,1996(a4)

00002cd4 <inst_518>:
    2cd4:	55555537          	lui	a0,0x55555
    2cd8:	55650513          	addi	a0,a0,1366 # 55555556 <_end+0x5554f852>
    2cdc:	00500593          	li	a1,5
    2ce0:	00b53633          	sltu	a2,a0,a1
    2ce4:	7cc72823          	sw	a2,2000(a4)

00002ce8 <inst_519>:
    2ce8:	55555537          	lui	a0,0x55555
    2cec:	55650513          	addi	a0,a0,1366 # 55555556 <_end+0x5554f852>
    2cf0:	333335b7          	lui	a1,0x33333
    2cf4:	33358593          	addi	a1,a1,819 # 33333333 <_end+0x3332d62f>
    2cf8:	00b53633          	sltu	a2,a0,a1
    2cfc:	7cc72a23          	sw	a2,2004(a4)

00002d00 <inst_520>:
    2d00:	55555537          	lui	a0,0x55555
    2d04:	55650513          	addi	a0,a0,1366 # 55555556 <_end+0x5554f852>
    2d08:	666665b7          	lui	a1,0x66666
    2d0c:	66658593          	addi	a1,a1,1638 # 66666666 <_end+0x66660962>
    2d10:	00b53633          	sltu	a2,a0,a1
    2d14:	7cc72c23          	sw	a2,2008(a4)

00002d18 <inst_521>:
    2d18:	55555537          	lui	a0,0x55555
    2d1c:	55650513          	addi	a0,a0,1366 # 55555556 <_end+0x5554f852>
    2d20:	0000b5b7          	lui	a1,0xb
    2d24:	50458593          	addi	a1,a1,1284 # b504 <_end+0x5800>
    2d28:	00b53633          	sltu	a2,a0,a1
    2d2c:	7cc72e23          	sw	a2,2012(a4)

00002d30 <inst_522>:
    2d30:	55555537          	lui	a0,0x55555
    2d34:	55650513          	addi	a0,a0,1366 # 55555556 <_end+0x5554f852>
    2d38:	00000593          	li	a1,0
    2d3c:	00b53633          	sltu	a2,a0,a1
    2d40:	7ec72023          	sw	a2,2016(a4)

00002d44 <inst_523>:
    2d44:	55555537          	lui	a0,0x55555
    2d48:	55650513          	addi	a0,a0,1366 # 55555556 <_end+0x5554f852>
    2d4c:	000105b7          	lui	a1,0x10
    2d50:	fff58593          	addi	a1,a1,-1 # ffff <_end+0xa2fb>
    2d54:	00b53633          	sltu	a2,a0,a1
    2d58:	7ec72223          	sw	a2,2020(a4)

00002d5c <inst_524>:
    2d5c:	55555537          	lui	a0,0x55555
    2d60:	55650513          	addi	a0,a0,1366 # 55555556 <_end+0x5554f852>
    2d64:	00200593          	li	a1,2
    2d68:	00b53633          	sltu	a2,a0,a1
    2d6c:	7ec72423          	sw	a2,2024(a4)

00002d70 <inst_525>:
    2d70:	55555537          	lui	a0,0x55555
    2d74:	55650513          	addi	a0,a0,1366 # 55555556 <_end+0x5554f852>
    2d78:	555555b7          	lui	a1,0x55555
    2d7c:	55458593          	addi	a1,a1,1364 # 55555554 <_end+0x5554f850>
    2d80:	00b53633          	sltu	a2,a0,a1
    2d84:	7ec72623          	sw	a2,2028(a4)

00002d88 <inst_526>:
    2d88:	55555537          	lui	a0,0x55555
    2d8c:	55650513          	addi	a0,a0,1366 # 55555556 <_end+0x5554f852>
    2d90:	aaaab5b7          	lui	a1,0xaaaab
    2d94:	aa958593          	addi	a1,a1,-1367 # aaaaaaa9 <_end+0xaaaa4da5>
    2d98:	00b53633          	sltu	a2,a0,a1
    2d9c:	7ec72823          	sw	a2,2032(a4)

00002da0 <inst_527>:
    2da0:	55555537          	lui	a0,0x55555
    2da4:	55650513          	addi	a0,a0,1366 # 55555556 <_end+0x5554f852>
    2da8:	00400593          	li	a1,4
    2dac:	00b53633          	sltu	a2,a0,a1
    2db0:	7ec72a23          	sw	a2,2036(a4)

00002db4 <inst_528>:
    2db4:	55555537          	lui	a0,0x55555
    2db8:	55650513          	addi	a0,a0,1366 # 55555556 <_end+0x5554f852>
    2dbc:	333335b7          	lui	a1,0x33333
    2dc0:	33258593          	addi	a1,a1,818 # 33333332 <_end+0x3332d62e>
    2dc4:	00b53633          	sltu	a2,a0,a1
    2dc8:	7ec72c23          	sw	a2,2040(a4)

00002dcc <inst_529>:
    2dcc:	55555537          	lui	a0,0x55555
    2dd0:	55650513          	addi	a0,a0,1366 # 55555556 <_end+0x5554f852>
    2dd4:	666665b7          	lui	a1,0x66666
    2dd8:	66558593          	addi	a1,a1,1637 # 66666665 <_end+0x66660961>
    2ddc:	00b53633          	sltu	a2,a0,a1
    2de0:	7ec72e23          	sw	a2,2044(a4)
    2de4:	00003717          	auipc	a4,0x3
    2de8:	a7470713          	addi	a4,a4,-1420 # 5858 <signature_x14_1>

00002dec <inst_530>:
    2dec:	55555537          	lui	a0,0x55555
    2df0:	55650513          	addi	a0,a0,1366 # 55555556 <_end+0x5554f852>
    2df4:	0000b5b7          	lui	a1,0xb
    2df8:	50358593          	addi	a1,a1,1283 # b503 <_end+0x57ff>
    2dfc:	00b53633          	sltu	a2,a0,a1
    2e00:	00c72023          	sw	a2,0(a4)

00002e04 <inst_531>:
    2e04:	55555537          	lui	a0,0x55555
    2e08:	55650513          	addi	a0,a0,1366 # 55555556 <_end+0x5554f852>
    2e0c:	000105b7          	lui	a1,0x10
    2e10:	ffe58593          	addi	a1,a1,-2 # fffe <_end+0xa2fa>
    2e14:	00b53633          	sltu	a2,a0,a1
    2e18:	00c72223          	sw	a2,4(a4)

00002e1c <inst_532>:
    2e1c:	55555537          	lui	a0,0x55555
    2e20:	55650513          	addi	a0,a0,1366 # 55555556 <_end+0x5554f852>
    2e24:	555555b7          	lui	a1,0x55555
    2e28:	55658593          	addi	a1,a1,1366 # 55555556 <_end+0x5554f852>
    2e2c:	00b53633          	sltu	a2,a0,a1
    2e30:	00c72423          	sw	a2,8(a4)

00002e34 <inst_533>:
    2e34:	55555537          	lui	a0,0x55555
    2e38:	55650513          	addi	a0,a0,1366 # 55555556 <_end+0x5554f852>
    2e3c:	aaaab5b7          	lui	a1,0xaaaab
    2e40:	aab58593          	addi	a1,a1,-1365 # aaaaaaab <_end+0xaaaa4da7>
    2e44:	00b53633          	sltu	a2,a0,a1
    2e48:	00c72623          	sw	a2,12(a4)

00002e4c <inst_534>:
    2e4c:	55555537          	lui	a0,0x55555
    2e50:	55650513          	addi	a0,a0,1366 # 55555556 <_end+0x5554f852>
    2e54:	00600593          	li	a1,6
    2e58:	00b53633          	sltu	a2,a0,a1
    2e5c:	00c72823          	sw	a2,16(a4)

00002e60 <inst_535>:
    2e60:	55555537          	lui	a0,0x55555
    2e64:	55650513          	addi	a0,a0,1366 # 55555556 <_end+0x5554f852>
    2e68:	333335b7          	lui	a1,0x33333
    2e6c:	33458593          	addi	a1,a1,820 # 33333334 <_end+0x3332d630>
    2e70:	00b53633          	sltu	a2,a0,a1
    2e74:	00c72a23          	sw	a2,20(a4)

00002e78 <inst_536>:
    2e78:	55555537          	lui	a0,0x55555
    2e7c:	55650513          	addi	a0,a0,1366 # 55555556 <_end+0x5554f852>
    2e80:	666665b7          	lui	a1,0x66666
    2e84:	66758593          	addi	a1,a1,1639 # 66666667 <_end+0x66660963>
    2e88:	00b53633          	sltu	a2,a0,a1
    2e8c:	00c72c23          	sw	a2,24(a4)

00002e90 <inst_537>:
    2e90:	55555537          	lui	a0,0x55555
    2e94:	55650513          	addi	a0,a0,1366 # 55555556 <_end+0x5554f852>
    2e98:	0000b5b7          	lui	a1,0xb
    2e9c:	50558593          	addi	a1,a1,1285 # b505 <_end+0x5801>
    2ea0:	00b53633          	sltu	a2,a0,a1
    2ea4:	00c72e23          	sw	a2,28(a4)

00002ea8 <inst_538>:
    2ea8:	55555537          	lui	a0,0x55555
    2eac:	55650513          	addi	a0,a0,1366 # 55555556 <_end+0x5554f852>
    2eb0:	00100593          	li	a1,1
    2eb4:	00b53633          	sltu	a2,a0,a1
    2eb8:	02c72023          	sw	a2,32(a4)

00002ebc <inst_539>:
    2ebc:	55555537          	lui	a0,0x55555
    2ec0:	55650513          	addi	a0,a0,1366 # 55555556 <_end+0x5554f852>
    2ec4:	000105b7          	lui	a1,0x10
    2ec8:	00b53633          	sltu	a2,a0,a1
    2ecc:	02c72223          	sw	a2,36(a4)

00002ed0 <inst_540>:
    2ed0:	aaaab537          	lui	a0,0xaaaab
    2ed4:	aab50513          	addi	a0,a0,-1365 # aaaaaaab <_end+0xaaaa4da7>
    2ed8:	00300593          	li	a1,3
    2edc:	00b53633          	sltu	a2,a0,a1
    2ee0:	02c72423          	sw	a2,40(a4)

00002ee4 <inst_541>:
    2ee4:	aaaab537          	lui	a0,0xaaaab
    2ee8:	aab50513          	addi	a0,a0,-1365 # aaaaaaab <_end+0xaaaa4da7>
    2eec:	555555b7          	lui	a1,0x55555
    2ef0:	55558593          	addi	a1,a1,1365 # 55555555 <_end+0x5554f851>
    2ef4:	00b53633          	sltu	a2,a0,a1
    2ef8:	02c72623          	sw	a2,44(a4)

00002efc <inst_542>:
    2efc:	aaaab537          	lui	a0,0xaaaab
    2f00:	aab50513          	addi	a0,a0,-1365 # aaaaaaab <_end+0xaaaa4da7>
    2f04:	aaaab5b7          	lui	a1,0xaaaab
    2f08:	aaa58593          	addi	a1,a1,-1366 # aaaaaaaa <_end+0xaaaa4da6>
    2f0c:	00b53633          	sltu	a2,a0,a1
    2f10:	02c72823          	sw	a2,48(a4)

00002f14 <inst_543>:
    2f14:	aaaab537          	lui	a0,0xaaaab
    2f18:	aab50513          	addi	a0,a0,-1365 # aaaaaaab <_end+0xaaaa4da7>
    2f1c:	00500593          	li	a1,5
    2f20:	00b53633          	sltu	a2,a0,a1
    2f24:	02c72a23          	sw	a2,52(a4)

00002f28 <inst_544>:
    2f28:	aaaab537          	lui	a0,0xaaaab
    2f2c:	aab50513          	addi	a0,a0,-1365 # aaaaaaab <_end+0xaaaa4da7>
    2f30:	333335b7          	lui	a1,0x33333
    2f34:	33358593          	addi	a1,a1,819 # 33333333 <_end+0x3332d62f>
    2f38:	00b53633          	sltu	a2,a0,a1
    2f3c:	02c72c23          	sw	a2,56(a4)

00002f40 <inst_545>:
    2f40:	aaaab537          	lui	a0,0xaaaab
    2f44:	aab50513          	addi	a0,a0,-1365 # aaaaaaab <_end+0xaaaa4da7>
    2f48:	666665b7          	lui	a1,0x66666
    2f4c:	66658593          	addi	a1,a1,1638 # 66666666 <_end+0x66660962>
    2f50:	00b53633          	sltu	a2,a0,a1
    2f54:	02c72e23          	sw	a2,60(a4)

00002f58 <inst_546>:
    2f58:	aaaab537          	lui	a0,0xaaaab
    2f5c:	aab50513          	addi	a0,a0,-1365 # aaaaaaab <_end+0xaaaa4da7>
    2f60:	0000b5b7          	lui	a1,0xb
    2f64:	50458593          	addi	a1,a1,1284 # b504 <_end+0x5800>
    2f68:	00b53633          	sltu	a2,a0,a1
    2f6c:	04c72023          	sw	a2,64(a4)

00002f70 <inst_547>:
    2f70:	aaaab537          	lui	a0,0xaaaab
    2f74:	aab50513          	addi	a0,a0,-1365 # aaaaaaab <_end+0xaaaa4da7>
    2f78:	00000593          	li	a1,0
    2f7c:	00b53633          	sltu	a2,a0,a1
    2f80:	04c72223          	sw	a2,68(a4)

00002f84 <inst_548>:
    2f84:	aaaab537          	lui	a0,0xaaaab
    2f88:	aab50513          	addi	a0,a0,-1365 # aaaaaaab <_end+0xaaaa4da7>
    2f8c:	000105b7          	lui	a1,0x10
    2f90:	fff58593          	addi	a1,a1,-1 # ffff <_end+0xa2fb>
    2f94:	00b53633          	sltu	a2,a0,a1
    2f98:	04c72423          	sw	a2,72(a4)

00002f9c <inst_549>:
    2f9c:	aaaab537          	lui	a0,0xaaaab
    2fa0:	aab50513          	addi	a0,a0,-1365 # aaaaaaab <_end+0xaaaa4da7>
    2fa4:	00200593          	li	a1,2
    2fa8:	00b53633          	sltu	a2,a0,a1
    2fac:	04c72623          	sw	a2,76(a4)

00002fb0 <inst_550>:
    2fb0:	aaaab537          	lui	a0,0xaaaab
    2fb4:	aab50513          	addi	a0,a0,-1365 # aaaaaaab <_end+0xaaaa4da7>
    2fb8:	555555b7          	lui	a1,0x55555
    2fbc:	55458593          	addi	a1,a1,1364 # 55555554 <_end+0x5554f850>
    2fc0:	00b53633          	sltu	a2,a0,a1
    2fc4:	04c72823          	sw	a2,80(a4)

00002fc8 <inst_551>:
    2fc8:	aaaab537          	lui	a0,0xaaaab
    2fcc:	aab50513          	addi	a0,a0,-1365 # aaaaaaab <_end+0xaaaa4da7>
    2fd0:	aaaab5b7          	lui	a1,0xaaaab
    2fd4:	aa958593          	addi	a1,a1,-1367 # aaaaaaa9 <_end+0xaaaa4da5>
    2fd8:	00b53633          	sltu	a2,a0,a1
    2fdc:	04c72a23          	sw	a2,84(a4)

00002fe0 <inst_552>:
    2fe0:	aaaab537          	lui	a0,0xaaaab
    2fe4:	aab50513          	addi	a0,a0,-1365 # aaaaaaab <_end+0xaaaa4da7>
    2fe8:	00400593          	li	a1,4
    2fec:	00b53633          	sltu	a2,a0,a1
    2ff0:	04c72c23          	sw	a2,88(a4)

00002ff4 <inst_553>:
    2ff4:	aaaab537          	lui	a0,0xaaaab
    2ff8:	aab50513          	addi	a0,a0,-1365 # aaaaaaab <_end+0xaaaa4da7>
    2ffc:	333335b7          	lui	a1,0x33333
    3000:	33258593          	addi	a1,a1,818 # 33333332 <_end+0x3332d62e>
    3004:	00b53633          	sltu	a2,a0,a1
    3008:	04c72e23          	sw	a2,92(a4)

0000300c <inst_554>:
    300c:	aaaab537          	lui	a0,0xaaaab
    3010:	aab50513          	addi	a0,a0,-1365 # aaaaaaab <_end+0xaaaa4da7>
    3014:	666665b7          	lui	a1,0x66666
    3018:	66558593          	addi	a1,a1,1637 # 66666665 <_end+0x66660961>
    301c:	00b53633          	sltu	a2,a0,a1
    3020:	06c72023          	sw	a2,96(a4)

00003024 <inst_555>:
    3024:	aaaab537          	lui	a0,0xaaaab
    3028:	aab50513          	addi	a0,a0,-1365 # aaaaaaab <_end+0xaaaa4da7>
    302c:	0000b5b7          	lui	a1,0xb
    3030:	50358593          	addi	a1,a1,1283 # b503 <_end+0x57ff>
    3034:	00b53633          	sltu	a2,a0,a1
    3038:	06c72223          	sw	a2,100(a4)

0000303c <inst_556>:
    303c:	aaaab537          	lui	a0,0xaaaab
    3040:	aab50513          	addi	a0,a0,-1365 # aaaaaaab <_end+0xaaaa4da7>
    3044:	000105b7          	lui	a1,0x10
    3048:	ffe58593          	addi	a1,a1,-2 # fffe <_end+0xa2fa>
    304c:	00b53633          	sltu	a2,a0,a1
    3050:	06c72423          	sw	a2,104(a4)

00003054 <inst_557>:
    3054:	aaaab537          	lui	a0,0xaaaab
    3058:	aab50513          	addi	a0,a0,-1365 # aaaaaaab <_end+0xaaaa4da7>
    305c:	555555b7          	lui	a1,0x55555
    3060:	55658593          	addi	a1,a1,1366 # 55555556 <_end+0x5554f852>
    3064:	00b53633          	sltu	a2,a0,a1
    3068:	06c72623          	sw	a2,108(a4)

0000306c <inst_558>:
    306c:	aaaab537          	lui	a0,0xaaaab
    3070:	aab50513          	addi	a0,a0,-1365 # aaaaaaab <_end+0xaaaa4da7>
    3074:	aaaab5b7          	lui	a1,0xaaaab
    3078:	aab58593          	addi	a1,a1,-1365 # aaaaaaab <_end+0xaaaa4da7>
    307c:	00b53633          	sltu	a2,a0,a1
    3080:	06c72823          	sw	a2,112(a4)

00003084 <inst_559>:
    3084:	aaaab537          	lui	a0,0xaaaab
    3088:	aab50513          	addi	a0,a0,-1365 # aaaaaaab <_end+0xaaaa4da7>
    308c:	00600593          	li	a1,6
    3090:	00b53633          	sltu	a2,a0,a1
    3094:	06c72a23          	sw	a2,116(a4)

00003098 <inst_560>:
    3098:	aaaab537          	lui	a0,0xaaaab
    309c:	aab50513          	addi	a0,a0,-1365 # aaaaaaab <_end+0xaaaa4da7>
    30a0:	333335b7          	lui	a1,0x33333
    30a4:	33458593          	addi	a1,a1,820 # 33333334 <_end+0x3332d630>
    30a8:	00b53633          	sltu	a2,a0,a1
    30ac:	06c72c23          	sw	a2,120(a4)

000030b0 <inst_561>:
    30b0:	aaaab537          	lui	a0,0xaaaab
    30b4:	aab50513          	addi	a0,a0,-1365 # aaaaaaab <_end+0xaaaa4da7>
    30b8:	666665b7          	lui	a1,0x66666
    30bc:	66758593          	addi	a1,a1,1639 # 66666667 <_end+0x66660963>
    30c0:	00b53633          	sltu	a2,a0,a1
    30c4:	06c72e23          	sw	a2,124(a4)

000030c8 <inst_562>:
    30c8:	aaaab537          	lui	a0,0xaaaab
    30cc:	aab50513          	addi	a0,a0,-1365 # aaaaaaab <_end+0xaaaa4da7>
    30d0:	0000b5b7          	lui	a1,0xb
    30d4:	50558593          	addi	a1,a1,1285 # b505 <_end+0x5801>
    30d8:	00b53633          	sltu	a2,a0,a1
    30dc:	08c72023          	sw	a2,128(a4)

000030e0 <inst_563>:
    30e0:	aaaab537          	lui	a0,0xaaaab
    30e4:	aab50513          	addi	a0,a0,-1365 # aaaaaaab <_end+0xaaaa4da7>
    30e8:	00100593          	li	a1,1
    30ec:	00b53633          	sltu	a2,a0,a1
    30f0:	08c72223          	sw	a2,132(a4)

000030f4 <inst_564>:
    30f4:	aaaab537          	lui	a0,0xaaaab
    30f8:	aab50513          	addi	a0,a0,-1365 # aaaaaaab <_end+0xaaaa4da7>
    30fc:	000105b7          	lui	a1,0x10
    3100:	00b53633          	sltu	a2,a0,a1
    3104:	08c72423          	sw	a2,136(a4)

00003108 <inst_565>:
    3108:	00600513          	li	a0,6
    310c:	00300593          	li	a1,3
    3110:	00b53633          	sltu	a2,a0,a1
    3114:	08c72623          	sw	a2,140(a4)

00003118 <inst_566>:
    3118:	00600513          	li	a0,6
    311c:	555555b7          	lui	a1,0x55555
    3120:	55558593          	addi	a1,a1,1365 # 55555555 <_end+0x5554f851>
    3124:	00b53633          	sltu	a2,a0,a1
    3128:	08c72823          	sw	a2,144(a4)

0000312c <inst_567>:
    312c:	00600513          	li	a0,6
    3130:	aaaab5b7          	lui	a1,0xaaaab
    3134:	aaa58593          	addi	a1,a1,-1366 # aaaaaaaa <_end+0xaaaa4da6>
    3138:	00b53633          	sltu	a2,a0,a1
    313c:	08c72a23          	sw	a2,148(a4)

00003140 <inst_568>:
    3140:	00600513          	li	a0,6
    3144:	00500593          	li	a1,5
    3148:	00b53633          	sltu	a2,a0,a1
    314c:	08c72c23          	sw	a2,152(a4)

00003150 <inst_569>:
    3150:	00600513          	li	a0,6
    3154:	333335b7          	lui	a1,0x33333
    3158:	33358593          	addi	a1,a1,819 # 33333333 <_end+0x3332d62f>
    315c:	00b53633          	sltu	a2,a0,a1
    3160:	08c72e23          	sw	a2,156(a4)

00003164 <inst_570>:
    3164:	00600513          	li	a0,6
    3168:	666665b7          	lui	a1,0x66666
    316c:	66658593          	addi	a1,a1,1638 # 66666666 <_end+0x66660962>
    3170:	00b53633          	sltu	a2,a0,a1
    3174:	0ac72023          	sw	a2,160(a4)

00003178 <inst_571>:
    3178:	00600513          	li	a0,6
    317c:	0000b5b7          	lui	a1,0xb
    3180:	50458593          	addi	a1,a1,1284 # b504 <_end+0x5800>
    3184:	00b53633          	sltu	a2,a0,a1
    3188:	0ac72223          	sw	a2,164(a4)

0000318c <inst_572>:
    318c:	00600513          	li	a0,6
    3190:	00000593          	li	a1,0
    3194:	00b53633          	sltu	a2,a0,a1
    3198:	0ac72423          	sw	a2,168(a4)

0000319c <inst_573>:
    319c:	00600513          	li	a0,6
    31a0:	000105b7          	lui	a1,0x10
    31a4:	fff58593          	addi	a1,a1,-1 # ffff <_end+0xa2fb>
    31a8:	00b53633          	sltu	a2,a0,a1
    31ac:	0ac72623          	sw	a2,172(a4)

000031b0 <inst_574>:
    31b0:	00600513          	li	a0,6
    31b4:	00200593          	li	a1,2
    31b8:	00b53633          	sltu	a2,a0,a1
    31bc:	0ac72823          	sw	a2,176(a4)

000031c0 <inst_575>:
    31c0:	00600513          	li	a0,6
    31c4:	555555b7          	lui	a1,0x55555
    31c8:	55458593          	addi	a1,a1,1364 # 55555554 <_end+0x5554f850>
    31cc:	00b53633          	sltu	a2,a0,a1
    31d0:	0ac72a23          	sw	a2,180(a4)

000031d4 <inst_576>:
    31d4:	00600513          	li	a0,6
    31d8:	aaaab5b7          	lui	a1,0xaaaab
    31dc:	aa958593          	addi	a1,a1,-1367 # aaaaaaa9 <_end+0xaaaa4da5>
    31e0:	00b53633          	sltu	a2,a0,a1
    31e4:	0ac72c23          	sw	a2,184(a4)

000031e8 <inst_577>:
    31e8:	00600513          	li	a0,6
    31ec:	00400593          	li	a1,4
    31f0:	00b53633          	sltu	a2,a0,a1
    31f4:	0ac72e23          	sw	a2,188(a4)

000031f8 <inst_578>:
    31f8:	00600513          	li	a0,6
    31fc:	333335b7          	lui	a1,0x33333
    3200:	33258593          	addi	a1,a1,818 # 33333332 <_end+0x3332d62e>
    3204:	00b53633          	sltu	a2,a0,a1
    3208:	0cc72023          	sw	a2,192(a4)

0000320c <inst_579>:
    320c:	00600513          	li	a0,6
    3210:	666665b7          	lui	a1,0x66666
    3214:	66558593          	addi	a1,a1,1637 # 66666665 <_end+0x66660961>
    3218:	00b53633          	sltu	a2,a0,a1
    321c:	0cc72223          	sw	a2,196(a4)

00003220 <inst_580>:
    3220:	00600513          	li	a0,6
    3224:	0000b5b7          	lui	a1,0xb
    3228:	50358593          	addi	a1,a1,1283 # b503 <_end+0x57ff>
    322c:	00b53633          	sltu	a2,a0,a1
    3230:	0cc72423          	sw	a2,200(a4)

00003234 <inst_581>:
    3234:	00600513          	li	a0,6
    3238:	000105b7          	lui	a1,0x10
    323c:	ffe58593          	addi	a1,a1,-2 # fffe <_end+0xa2fa>
    3240:	00b53633          	sltu	a2,a0,a1
    3244:	0cc72623          	sw	a2,204(a4)

00003248 <inst_582>:
    3248:	00600513          	li	a0,6
    324c:	555555b7          	lui	a1,0x55555
    3250:	55658593          	addi	a1,a1,1366 # 55555556 <_end+0x5554f852>
    3254:	00b53633          	sltu	a2,a0,a1
    3258:	0cc72823          	sw	a2,208(a4)

0000325c <inst_583>:
    325c:	00600513          	li	a0,6
    3260:	aaaab5b7          	lui	a1,0xaaaab
    3264:	aab58593          	addi	a1,a1,-1365 # aaaaaaab <_end+0xaaaa4da7>
    3268:	00b53633          	sltu	a2,a0,a1
    326c:	0cc72a23          	sw	a2,212(a4)

00003270 <inst_584>:
    3270:	00600513          	li	a0,6
    3274:	00600593          	li	a1,6
    3278:	00b53633          	sltu	a2,a0,a1
    327c:	0cc72c23          	sw	a2,216(a4)

00003280 <inst_585>:
    3280:	00600513          	li	a0,6
    3284:	333335b7          	lui	a1,0x33333
    3288:	33458593          	addi	a1,a1,820 # 33333334 <_end+0x3332d630>
    328c:	00b53633          	sltu	a2,a0,a1
    3290:	0cc72e23          	sw	a2,220(a4)

00003294 <inst_586>:
    3294:	00600513          	li	a0,6
    3298:	666665b7          	lui	a1,0x66666
    329c:	66758593          	addi	a1,a1,1639 # 66666667 <_end+0x66660963>
    32a0:	00b53633          	sltu	a2,a0,a1
    32a4:	0ec72023          	sw	a2,224(a4)

000032a8 <inst_587>:
    32a8:	00600513          	li	a0,6
    32ac:	0000b5b7          	lui	a1,0xb
    32b0:	50558593          	addi	a1,a1,1285 # b505 <_end+0x5801>
    32b4:	00b53633          	sltu	a2,a0,a1
    32b8:	0ec72223          	sw	a2,228(a4)

000032bc <inst_588>:
    32bc:	00600513          	li	a0,6
    32c0:	00100593          	li	a1,1
    32c4:	00b53633          	sltu	a2,a0,a1
    32c8:	0ec72423          	sw	a2,232(a4)

000032cc <inst_589>:
    32cc:	00600513          	li	a0,6
    32d0:	000105b7          	lui	a1,0x10
    32d4:	00b53633          	sltu	a2,a0,a1
    32d8:	0ec72623          	sw	a2,236(a4)

000032dc <inst_590>:
    32dc:	33333537          	lui	a0,0x33333
    32e0:	33450513          	addi	a0,a0,820 # 33333334 <_end+0x3332d630>
    32e4:	00300593          	li	a1,3
    32e8:	00b53633          	sltu	a2,a0,a1
    32ec:	0ec72823          	sw	a2,240(a4)

000032f0 <inst_591>:
    32f0:	66666537          	lui	a0,0x66666
    32f4:	66550513          	addi	a0,a0,1637 # 66666665 <_end+0x66660961>
    32f8:	aaaab5b7          	lui	a1,0xaaaab
    32fc:	aab58593          	addi	a1,a1,-1365 # aaaaaaab <_end+0xaaaa4da7>
    3300:	00b53633          	sltu	a2,a0,a1
    3304:	0ec72a23          	sw	a2,244(a4)

00003308 <inst_592>:
    3308:	33333537          	lui	a0,0x33333
    330c:	33450513          	addi	a0,a0,820 # 33333334 <_end+0x3332d630>
    3310:	555555b7          	lui	a1,0x55555
    3314:	55558593          	addi	a1,a1,1365 # 55555555 <_end+0x5554f851>
    3318:	00b53633          	sltu	a2,a0,a1
    331c:	0ec72c23          	sw	a2,248(a4)

00003320 <inst_593>:
    3320:	33333537          	lui	a0,0x33333
    3324:	33450513          	addi	a0,a0,820 # 33333334 <_end+0x3332d630>
    3328:	aaaab5b7          	lui	a1,0xaaaab
    332c:	aaa58593          	addi	a1,a1,-1366 # aaaaaaaa <_end+0xaaaa4da6>
    3330:	00b53633          	sltu	a2,a0,a1
    3334:	0ec72e23          	sw	a2,252(a4)

00003338 <inst_594>:
    3338:	33333537          	lui	a0,0x33333
    333c:	33450513          	addi	a0,a0,820 # 33333334 <_end+0x3332d630>
    3340:	00500593          	li	a1,5
    3344:	00b53633          	sltu	a2,a0,a1
    3348:	10c72023          	sw	a2,256(a4)

0000334c <inst_595>:
    334c:	33333537          	lui	a0,0x33333
    3350:	33450513          	addi	a0,a0,820 # 33333334 <_end+0x3332d630>
    3354:	333335b7          	lui	a1,0x33333
    3358:	33358593          	addi	a1,a1,819 # 33333333 <_end+0x3332d62f>
    335c:	00b53633          	sltu	a2,a0,a1
    3360:	10c72223          	sw	a2,260(a4)

00003364 <inst_596>:
    3364:	33333537          	lui	a0,0x33333
    3368:	33450513          	addi	a0,a0,820 # 33333334 <_end+0x3332d630>
    336c:	666665b7          	lui	a1,0x66666
    3370:	66658593          	addi	a1,a1,1638 # 66666666 <_end+0x66660962>
    3374:	00b53633          	sltu	a2,a0,a1
    3378:	10c72423          	sw	a2,264(a4)

0000337c <inst_597>:
    337c:	33333537          	lui	a0,0x33333
    3380:	33450513          	addi	a0,a0,820 # 33333334 <_end+0x3332d630>
    3384:	0000b5b7          	lui	a1,0xb
    3388:	50458593          	addi	a1,a1,1284 # b504 <_end+0x5800>
    338c:	00b53633          	sltu	a2,a0,a1
    3390:	10c72623          	sw	a2,268(a4)

00003394 <inst_598>:
    3394:	33333537          	lui	a0,0x33333
    3398:	33450513          	addi	a0,a0,820 # 33333334 <_end+0x3332d630>
    339c:	00000593          	li	a1,0
    33a0:	00b53633          	sltu	a2,a0,a1
    33a4:	10c72823          	sw	a2,272(a4)

000033a8 <inst_599>:
    33a8:	33333537          	lui	a0,0x33333
    33ac:	33450513          	addi	a0,a0,820 # 33333334 <_end+0x3332d630>
    33b0:	000105b7          	lui	a1,0x10
    33b4:	fff58593          	addi	a1,a1,-1 # ffff <_end+0xa2fb>
    33b8:	00b53633          	sltu	a2,a0,a1
    33bc:	10c72a23          	sw	a2,276(a4)

000033c0 <inst_600>:
    33c0:	33333537          	lui	a0,0x33333
    33c4:	33450513          	addi	a0,a0,820 # 33333334 <_end+0x3332d630>
    33c8:	00200593          	li	a1,2
    33cc:	00b53633          	sltu	a2,a0,a1
    33d0:	10c72c23          	sw	a2,280(a4)

000033d4 <inst_601>:
    33d4:	33333537          	lui	a0,0x33333
    33d8:	33450513          	addi	a0,a0,820 # 33333334 <_end+0x3332d630>
    33dc:	555555b7          	lui	a1,0x55555
    33e0:	55458593          	addi	a1,a1,1364 # 55555554 <_end+0x5554f850>
    33e4:	00b53633          	sltu	a2,a0,a1
    33e8:	10c72e23          	sw	a2,284(a4)

000033ec <inst_602>:
    33ec:	33333537          	lui	a0,0x33333
    33f0:	33450513          	addi	a0,a0,820 # 33333334 <_end+0x3332d630>
    33f4:	aaaab5b7          	lui	a1,0xaaaab
    33f8:	aa958593          	addi	a1,a1,-1367 # aaaaaaa9 <_end+0xaaaa4da5>
    33fc:	00b53633          	sltu	a2,a0,a1
    3400:	12c72023          	sw	a2,288(a4)

00003404 <inst_603>:
    3404:	33333537          	lui	a0,0x33333
    3408:	33450513          	addi	a0,a0,820 # 33333334 <_end+0x3332d630>
    340c:	00400593          	li	a1,4
    3410:	00b53633          	sltu	a2,a0,a1
    3414:	12c72223          	sw	a2,292(a4)

00003418 <inst_604>:
    3418:	33333537          	lui	a0,0x33333
    341c:	33450513          	addi	a0,a0,820 # 33333334 <_end+0x3332d630>
    3420:	333335b7          	lui	a1,0x33333
    3424:	33258593          	addi	a1,a1,818 # 33333332 <_end+0x3332d62e>
    3428:	00b53633          	sltu	a2,a0,a1
    342c:	12c72423          	sw	a2,296(a4)

00003430 <inst_605>:
    3430:	33333537          	lui	a0,0x33333
    3434:	33450513          	addi	a0,a0,820 # 33333334 <_end+0x3332d630>
    3438:	666665b7          	lui	a1,0x66666
    343c:	66558593          	addi	a1,a1,1637 # 66666665 <_end+0x66660961>
    3440:	00b53633          	sltu	a2,a0,a1
    3444:	12c72623          	sw	a2,300(a4)

00003448 <inst_606>:
    3448:	33333537          	lui	a0,0x33333
    344c:	33450513          	addi	a0,a0,820 # 33333334 <_end+0x3332d630>
    3450:	0000b5b7          	lui	a1,0xb
    3454:	50358593          	addi	a1,a1,1283 # b503 <_end+0x57ff>
    3458:	00b53633          	sltu	a2,a0,a1
    345c:	12c72823          	sw	a2,304(a4)

00003460 <inst_607>:
    3460:	33333537          	lui	a0,0x33333
    3464:	33450513          	addi	a0,a0,820 # 33333334 <_end+0x3332d630>
    3468:	000105b7          	lui	a1,0x10
    346c:	ffe58593          	addi	a1,a1,-2 # fffe <_end+0xa2fa>
    3470:	00b53633          	sltu	a2,a0,a1
    3474:	12c72a23          	sw	a2,308(a4)

00003478 <inst_608>:
    3478:	33333537          	lui	a0,0x33333
    347c:	33450513          	addi	a0,a0,820 # 33333334 <_end+0x3332d630>
    3480:	555555b7          	lui	a1,0x55555
    3484:	55658593          	addi	a1,a1,1366 # 55555556 <_end+0x5554f852>
    3488:	00b53633          	sltu	a2,a0,a1
    348c:	12c72c23          	sw	a2,312(a4)

00003490 <inst_609>:
    3490:	33333537          	lui	a0,0x33333
    3494:	33450513          	addi	a0,a0,820 # 33333334 <_end+0x3332d630>
    3498:	aaaab5b7          	lui	a1,0xaaaab
    349c:	aab58593          	addi	a1,a1,-1365 # aaaaaaab <_end+0xaaaa4da7>
    34a0:	00b53633          	sltu	a2,a0,a1
    34a4:	12c72e23          	sw	a2,316(a4)

000034a8 <inst_610>:
    34a8:	33333537          	lui	a0,0x33333
    34ac:	33450513          	addi	a0,a0,820 # 33333334 <_end+0x3332d630>
    34b0:	00600593          	li	a1,6
    34b4:	00b53633          	sltu	a2,a0,a1
    34b8:	14c72023          	sw	a2,320(a4)

000034bc <inst_611>:
    34bc:	33333537          	lui	a0,0x33333
    34c0:	33450513          	addi	a0,a0,820 # 33333334 <_end+0x3332d630>
    34c4:	333335b7          	lui	a1,0x33333
    34c8:	33458593          	addi	a1,a1,820 # 33333334 <_end+0x3332d630>
    34cc:	00b53633          	sltu	a2,a0,a1
    34d0:	14c72223          	sw	a2,324(a4)

000034d4 <inst_612>:
    34d4:	33333537          	lui	a0,0x33333
    34d8:	33450513          	addi	a0,a0,820 # 33333334 <_end+0x3332d630>
    34dc:	666665b7          	lui	a1,0x66666
    34e0:	66758593          	addi	a1,a1,1639 # 66666667 <_end+0x66660963>
    34e4:	00b53633          	sltu	a2,a0,a1
    34e8:	14c72423          	sw	a2,328(a4)

000034ec <inst_613>:
    34ec:	33333537          	lui	a0,0x33333
    34f0:	33450513          	addi	a0,a0,820 # 33333334 <_end+0x3332d630>
    34f4:	0000b5b7          	lui	a1,0xb
    34f8:	50558593          	addi	a1,a1,1285 # b505 <_end+0x5801>
    34fc:	00b53633          	sltu	a2,a0,a1
    3500:	14c72623          	sw	a2,332(a4)

00003504 <inst_614>:
    3504:	33333537          	lui	a0,0x33333
    3508:	33450513          	addi	a0,a0,820 # 33333334 <_end+0x3332d630>
    350c:	00100593          	li	a1,1
    3510:	00b53633          	sltu	a2,a0,a1
    3514:	14c72823          	sw	a2,336(a4)

00003518 <inst_615>:
    3518:	33333537          	lui	a0,0x33333
    351c:	33450513          	addi	a0,a0,820 # 33333334 <_end+0x3332d630>
    3520:	000105b7          	lui	a1,0x10
    3524:	00b53633          	sltu	a2,a0,a1
    3528:	14c72a23          	sw	a2,340(a4)

0000352c <inst_616>:
    352c:	66666537          	lui	a0,0x66666
    3530:	66750513          	addi	a0,a0,1639 # 66666667 <_end+0x66660963>
    3534:	00300593          	li	a1,3
    3538:	00b53633          	sltu	a2,a0,a1
    353c:	14c72c23          	sw	a2,344(a4)

00003540 <inst_617>:
    3540:	66666537          	lui	a0,0x66666
    3544:	66750513          	addi	a0,a0,1639 # 66666667 <_end+0x66660963>
    3548:	555555b7          	lui	a1,0x55555
    354c:	55558593          	addi	a1,a1,1365 # 55555555 <_end+0x5554f851>
    3550:	00b53633          	sltu	a2,a0,a1
    3554:	14c72e23          	sw	a2,348(a4)

00003558 <inst_618>:
    3558:	66666537          	lui	a0,0x66666
    355c:	66750513          	addi	a0,a0,1639 # 66666667 <_end+0x66660963>
    3560:	aaaab5b7          	lui	a1,0xaaaab
    3564:	aaa58593          	addi	a1,a1,-1366 # aaaaaaaa <_end+0xaaaa4da6>
    3568:	00b53633          	sltu	a2,a0,a1
    356c:	16c72023          	sw	a2,352(a4)

00003570 <inst_619>:
    3570:	66666537          	lui	a0,0x66666
    3574:	66750513          	addi	a0,a0,1639 # 66666667 <_end+0x66660963>
    3578:	00500593          	li	a1,5
    357c:	00b53633          	sltu	a2,a0,a1
    3580:	16c72223          	sw	a2,356(a4)

00003584 <inst_620>:
    3584:	66666537          	lui	a0,0x66666
    3588:	66750513          	addi	a0,a0,1639 # 66666667 <_end+0x66660963>
    358c:	333335b7          	lui	a1,0x33333
    3590:	33358593          	addi	a1,a1,819 # 33333333 <_end+0x3332d62f>
    3594:	00b53633          	sltu	a2,a0,a1
    3598:	16c72423          	sw	a2,360(a4)

0000359c <inst_621>:
    359c:	66666537          	lui	a0,0x66666
    35a0:	66750513          	addi	a0,a0,1639 # 66666667 <_end+0x66660963>
    35a4:	666665b7          	lui	a1,0x66666
    35a8:	66658593          	addi	a1,a1,1638 # 66666666 <_end+0x66660962>
    35ac:	00b53633          	sltu	a2,a0,a1
    35b0:	16c72623          	sw	a2,364(a4)

000035b4 <inst_622>:
    35b4:	66666537          	lui	a0,0x66666
    35b8:	66750513          	addi	a0,a0,1639 # 66666667 <_end+0x66660963>
    35bc:	0000b5b7          	lui	a1,0xb
    35c0:	50458593          	addi	a1,a1,1284 # b504 <_end+0x5800>
    35c4:	00b53633          	sltu	a2,a0,a1
    35c8:	16c72823          	sw	a2,368(a4)

000035cc <inst_623>:
    35cc:	66666537          	lui	a0,0x66666
    35d0:	66750513          	addi	a0,a0,1639 # 66666667 <_end+0x66660963>
    35d4:	00000593          	li	a1,0
    35d8:	00b53633          	sltu	a2,a0,a1
    35dc:	16c72a23          	sw	a2,372(a4)

000035e0 <inst_624>:
    35e0:	66666537          	lui	a0,0x66666
    35e4:	66750513          	addi	a0,a0,1639 # 66666667 <_end+0x66660963>
    35e8:	000105b7          	lui	a1,0x10
    35ec:	fff58593          	addi	a1,a1,-1 # ffff <_end+0xa2fb>
    35f0:	00b53633          	sltu	a2,a0,a1
    35f4:	16c72c23          	sw	a2,376(a4)

000035f8 <inst_625>:
    35f8:	66666537          	lui	a0,0x66666
    35fc:	66750513          	addi	a0,a0,1639 # 66666667 <_end+0x66660963>
    3600:	00200593          	li	a1,2
    3604:	00b53633          	sltu	a2,a0,a1
    3608:	16c72e23          	sw	a2,380(a4)

0000360c <inst_626>:
    360c:	66666537          	lui	a0,0x66666
    3610:	66750513          	addi	a0,a0,1639 # 66666667 <_end+0x66660963>
    3614:	555555b7          	lui	a1,0x55555
    3618:	55458593          	addi	a1,a1,1364 # 55555554 <_end+0x5554f850>
    361c:	00b53633          	sltu	a2,a0,a1
    3620:	18c72023          	sw	a2,384(a4)

00003624 <inst_627>:
    3624:	66666537          	lui	a0,0x66666
    3628:	66750513          	addi	a0,a0,1639 # 66666667 <_end+0x66660963>
    362c:	aaaab5b7          	lui	a1,0xaaaab
    3630:	aa958593          	addi	a1,a1,-1367 # aaaaaaa9 <_end+0xaaaa4da5>
    3634:	00b53633          	sltu	a2,a0,a1
    3638:	18c72223          	sw	a2,388(a4)

0000363c <inst_628>:
    363c:	66666537          	lui	a0,0x66666
    3640:	66750513          	addi	a0,a0,1639 # 66666667 <_end+0x66660963>
    3644:	00400593          	li	a1,4
    3648:	00b53633          	sltu	a2,a0,a1
    364c:	18c72423          	sw	a2,392(a4)

00003650 <inst_629>:
    3650:	66666537          	lui	a0,0x66666
    3654:	66750513          	addi	a0,a0,1639 # 66666667 <_end+0x66660963>
    3658:	333335b7          	lui	a1,0x33333
    365c:	33258593          	addi	a1,a1,818 # 33333332 <_end+0x3332d62e>
    3660:	00b53633          	sltu	a2,a0,a1
    3664:	18c72623          	sw	a2,396(a4)

00003668 <inst_630>:
    3668:	66666537          	lui	a0,0x66666
    366c:	66750513          	addi	a0,a0,1639 # 66666667 <_end+0x66660963>
    3670:	666665b7          	lui	a1,0x66666
    3674:	66558593          	addi	a1,a1,1637 # 66666665 <_end+0x66660961>
    3678:	00b53633          	sltu	a2,a0,a1
    367c:	18c72823          	sw	a2,400(a4)

00003680 <inst_631>:
    3680:	66666537          	lui	a0,0x66666
    3684:	66750513          	addi	a0,a0,1639 # 66666667 <_end+0x66660963>
    3688:	0000b5b7          	lui	a1,0xb
    368c:	50358593          	addi	a1,a1,1283 # b503 <_end+0x57ff>
    3690:	00b53633          	sltu	a2,a0,a1
    3694:	18c72a23          	sw	a2,404(a4)

00003698 <inst_632>:
    3698:	66666537          	lui	a0,0x66666
    369c:	66750513          	addi	a0,a0,1639 # 66666667 <_end+0x66660963>
    36a0:	000105b7          	lui	a1,0x10
    36a4:	ffe58593          	addi	a1,a1,-2 # fffe <_end+0xa2fa>
    36a8:	00b53633          	sltu	a2,a0,a1
    36ac:	18c72c23          	sw	a2,408(a4)

000036b0 <inst_633>:
    36b0:	66666537          	lui	a0,0x66666
    36b4:	66750513          	addi	a0,a0,1639 # 66666667 <_end+0x66660963>
    36b8:	555555b7          	lui	a1,0x55555
    36bc:	55658593          	addi	a1,a1,1366 # 55555556 <_end+0x5554f852>
    36c0:	00b53633          	sltu	a2,a0,a1
    36c4:	18c72e23          	sw	a2,412(a4)

000036c8 <inst_634>:
    36c8:	66666537          	lui	a0,0x66666
    36cc:	66750513          	addi	a0,a0,1639 # 66666667 <_end+0x66660963>
    36d0:	aaaab5b7          	lui	a1,0xaaaab
    36d4:	aab58593          	addi	a1,a1,-1365 # aaaaaaab <_end+0xaaaa4da7>
    36d8:	00b53633          	sltu	a2,a0,a1
    36dc:	1ac72023          	sw	a2,416(a4)

000036e0 <inst_635>:
    36e0:	66666537          	lui	a0,0x66666
    36e4:	66750513          	addi	a0,a0,1639 # 66666667 <_end+0x66660963>
    36e8:	00600593          	li	a1,6
    36ec:	00b53633          	sltu	a2,a0,a1
    36f0:	1ac72223          	sw	a2,420(a4)

000036f4 <inst_636>:
    36f4:	66666537          	lui	a0,0x66666
    36f8:	66750513          	addi	a0,a0,1639 # 66666667 <_end+0x66660963>
    36fc:	333335b7          	lui	a1,0x33333
    3700:	33458593          	addi	a1,a1,820 # 33333334 <_end+0x3332d630>
    3704:	00b53633          	sltu	a2,a0,a1
    3708:	1ac72423          	sw	a2,424(a4)

0000370c <inst_637>:
    370c:	66666537          	lui	a0,0x66666
    3710:	66750513          	addi	a0,a0,1639 # 66666667 <_end+0x66660963>
    3714:	666665b7          	lui	a1,0x66666
    3718:	66758593          	addi	a1,a1,1639 # 66666667 <_end+0x66660963>
    371c:	00b53633          	sltu	a2,a0,a1
    3720:	1ac72623          	sw	a2,428(a4)

00003724 <inst_638>:
    3724:	66666537          	lui	a0,0x66666
    3728:	66750513          	addi	a0,a0,1639 # 66666667 <_end+0x66660963>
    372c:	0000b5b7          	lui	a1,0xb
    3730:	50558593          	addi	a1,a1,1285 # b505 <_end+0x5801>
    3734:	00b53633          	sltu	a2,a0,a1
    3738:	1ac72823          	sw	a2,432(a4)

0000373c <inst_639>:
    373c:	66666537          	lui	a0,0x66666
    3740:	66750513          	addi	a0,a0,1639 # 66666667 <_end+0x66660963>
    3744:	00100593          	li	a1,1
    3748:	00b53633          	sltu	a2,a0,a1
    374c:	1ac72a23          	sw	a2,436(a4)

00003750 <inst_640>:
    3750:	66666537          	lui	a0,0x66666
    3754:	66750513          	addi	a0,a0,1639 # 66666667 <_end+0x66660963>
    3758:	000105b7          	lui	a1,0x10
    375c:	00b53633          	sltu	a2,a0,a1
    3760:	1ac72c23          	sw	a2,440(a4)

00003764 <inst_641>:
    3764:	0000b537          	lui	a0,0xb
    3768:	50550513          	addi	a0,a0,1285 # b505 <_end+0x5801>
    376c:	00300593          	li	a1,3
    3770:	00b53633          	sltu	a2,a0,a1
    3774:	1ac72e23          	sw	a2,444(a4)

00003778 <inst_642>:
    3778:	0000b537          	lui	a0,0xb
    377c:	50550513          	addi	a0,a0,1285 # b505 <_end+0x5801>
    3780:	555555b7          	lui	a1,0x55555
    3784:	55558593          	addi	a1,a1,1365 # 55555555 <_end+0x5554f851>
    3788:	00b53633          	sltu	a2,a0,a1
    378c:	1cc72023          	sw	a2,448(a4)

00003790 <inst_643>:
    3790:	0000b537          	lui	a0,0xb
    3794:	50550513          	addi	a0,a0,1285 # b505 <_end+0x5801>
    3798:	aaaab5b7          	lui	a1,0xaaaab
    379c:	aaa58593          	addi	a1,a1,-1366 # aaaaaaaa <_end+0xaaaa4da6>
    37a0:	00b53633          	sltu	a2,a0,a1
    37a4:	1cc72223          	sw	a2,452(a4)

000037a8 <inst_644>:
    37a8:	0000b537          	lui	a0,0xb
    37ac:	50550513          	addi	a0,a0,1285 # b505 <_end+0x5801>
    37b0:	00500593          	li	a1,5
    37b4:	00b53633          	sltu	a2,a0,a1
    37b8:	1cc72423          	sw	a2,456(a4)

000037bc <inst_645>:
    37bc:	0000b537          	lui	a0,0xb
    37c0:	50550513          	addi	a0,a0,1285 # b505 <_end+0x5801>
    37c4:	333335b7          	lui	a1,0x33333
    37c8:	33358593          	addi	a1,a1,819 # 33333333 <_end+0x3332d62f>
    37cc:	00b53633          	sltu	a2,a0,a1
    37d0:	1cc72623          	sw	a2,460(a4)

000037d4 <inst_646>:
    37d4:	0000b537          	lui	a0,0xb
    37d8:	50550513          	addi	a0,a0,1285 # b505 <_end+0x5801>
    37dc:	666665b7          	lui	a1,0x66666
    37e0:	66658593          	addi	a1,a1,1638 # 66666666 <_end+0x66660962>
    37e4:	00b53633          	sltu	a2,a0,a1
    37e8:	1cc72823          	sw	a2,464(a4)

000037ec <inst_647>:
    37ec:	0000b537          	lui	a0,0xb
    37f0:	50550513          	addi	a0,a0,1285 # b505 <_end+0x5801>
    37f4:	0000b5b7          	lui	a1,0xb
    37f8:	50458593          	addi	a1,a1,1284 # b504 <_end+0x5800>
    37fc:	00b53633          	sltu	a2,a0,a1
    3800:	1cc72a23          	sw	a2,468(a4)

00003804 <inst_648>:
    3804:	0000b537          	lui	a0,0xb
    3808:	50550513          	addi	a0,a0,1285 # b505 <_end+0x5801>
    380c:	00000593          	li	a1,0
    3810:	00b53633          	sltu	a2,a0,a1
    3814:	1cc72c23          	sw	a2,472(a4)

00003818 <inst_649>:
    3818:	0000b537          	lui	a0,0xb
    381c:	50550513          	addi	a0,a0,1285 # b505 <_end+0x5801>
    3820:	000105b7          	lui	a1,0x10
    3824:	fff58593          	addi	a1,a1,-1 # ffff <_end+0xa2fb>
    3828:	00b53633          	sltu	a2,a0,a1
    382c:	1cc72e23          	sw	a2,476(a4)

00003830 <inst_650>:
    3830:	0000b537          	lui	a0,0xb
    3834:	50550513          	addi	a0,a0,1285 # b505 <_end+0x5801>
    3838:	00200593          	li	a1,2
    383c:	00b53633          	sltu	a2,a0,a1
    3840:	1ec72023          	sw	a2,480(a4)

00003844 <inst_651>:
    3844:	0000b537          	lui	a0,0xb
    3848:	50550513          	addi	a0,a0,1285 # b505 <_end+0x5801>
    384c:	555555b7          	lui	a1,0x55555
    3850:	55458593          	addi	a1,a1,1364 # 55555554 <_end+0x5554f850>
    3854:	00b53633          	sltu	a2,a0,a1
    3858:	1ec72223          	sw	a2,484(a4)

0000385c <inst_652>:
    385c:	0000b537          	lui	a0,0xb
    3860:	50550513          	addi	a0,a0,1285 # b505 <_end+0x5801>
    3864:	aaaab5b7          	lui	a1,0xaaaab
    3868:	aa958593          	addi	a1,a1,-1367 # aaaaaaa9 <_end+0xaaaa4da5>
    386c:	00b53633          	sltu	a2,a0,a1
    3870:	1ec72423          	sw	a2,488(a4)

00003874 <inst_653>:
    3874:	0000b537          	lui	a0,0xb
    3878:	50550513          	addi	a0,a0,1285 # b505 <_end+0x5801>
    387c:	00400593          	li	a1,4
    3880:	00b53633          	sltu	a2,a0,a1
    3884:	1ec72623          	sw	a2,492(a4)

00003888 <inst_654>:
    3888:	0000b537          	lui	a0,0xb
    388c:	50550513          	addi	a0,a0,1285 # b505 <_end+0x5801>
    3890:	333335b7          	lui	a1,0x33333
    3894:	33258593          	addi	a1,a1,818 # 33333332 <_end+0x3332d62e>
    3898:	00b53633          	sltu	a2,a0,a1
    389c:	1ec72823          	sw	a2,496(a4)

000038a0 <inst_655>:
    38a0:	0000b537          	lui	a0,0xb
    38a4:	50550513          	addi	a0,a0,1285 # b505 <_end+0x5801>
    38a8:	666665b7          	lui	a1,0x66666
    38ac:	66558593          	addi	a1,a1,1637 # 66666665 <_end+0x66660961>
    38b0:	00b53633          	sltu	a2,a0,a1
    38b4:	1ec72a23          	sw	a2,500(a4)

000038b8 <inst_656>:
    38b8:	0000b537          	lui	a0,0xb
    38bc:	50550513          	addi	a0,a0,1285 # b505 <_end+0x5801>
    38c0:	0000b5b7          	lui	a1,0xb
    38c4:	50358593          	addi	a1,a1,1283 # b503 <_end+0x57ff>
    38c8:	00b53633          	sltu	a2,a0,a1
    38cc:	1ec72c23          	sw	a2,504(a4)

000038d0 <inst_657>:
    38d0:	0000b537          	lui	a0,0xb
    38d4:	50550513          	addi	a0,a0,1285 # b505 <_end+0x5801>
    38d8:	000105b7          	lui	a1,0x10
    38dc:	ffe58593          	addi	a1,a1,-2 # fffe <_end+0xa2fa>
    38e0:	00b53633          	sltu	a2,a0,a1
    38e4:	1ec72e23          	sw	a2,508(a4)

000038e8 <inst_658>:
    38e8:	0000b537          	lui	a0,0xb
    38ec:	50550513          	addi	a0,a0,1285 # b505 <_end+0x5801>
    38f0:	555555b7          	lui	a1,0x55555
    38f4:	55658593          	addi	a1,a1,1366 # 55555556 <_end+0x5554f852>
    38f8:	00b53633          	sltu	a2,a0,a1
    38fc:	20c72023          	sw	a2,512(a4)

00003900 <inst_659>:
    3900:	0000b537          	lui	a0,0xb
    3904:	50550513          	addi	a0,a0,1285 # b505 <_end+0x5801>
    3908:	aaaab5b7          	lui	a1,0xaaaab
    390c:	aab58593          	addi	a1,a1,-1365 # aaaaaaab <_end+0xaaaa4da7>
    3910:	00b53633          	sltu	a2,a0,a1
    3914:	20c72223          	sw	a2,516(a4)

00003918 <inst_660>:
    3918:	0000b537          	lui	a0,0xb
    391c:	50550513          	addi	a0,a0,1285 # b505 <_end+0x5801>
    3920:	00600593          	li	a1,6
    3924:	00b53633          	sltu	a2,a0,a1
    3928:	20c72423          	sw	a2,520(a4)

0000392c <inst_661>:
    392c:	0000b537          	lui	a0,0xb
    3930:	50550513          	addi	a0,a0,1285 # b505 <_end+0x5801>
    3934:	333335b7          	lui	a1,0x33333
    3938:	33458593          	addi	a1,a1,820 # 33333334 <_end+0x3332d630>
    393c:	00b53633          	sltu	a2,a0,a1
    3940:	20c72623          	sw	a2,524(a4)

00003944 <inst_662>:
    3944:	0000b537          	lui	a0,0xb
    3948:	50550513          	addi	a0,a0,1285 # b505 <_end+0x5801>
    394c:	666665b7          	lui	a1,0x66666
    3950:	66758593          	addi	a1,a1,1639 # 66666667 <_end+0x66660963>
    3954:	00b53633          	sltu	a2,a0,a1
    3958:	20c72823          	sw	a2,528(a4)

0000395c <inst_663>:
    395c:	0000b537          	lui	a0,0xb
    3960:	50550513          	addi	a0,a0,1285 # b505 <_end+0x5801>
    3964:	0000b5b7          	lui	a1,0xb
    3968:	50558593          	addi	a1,a1,1285 # b505 <_end+0x5801>
    396c:	00b53633          	sltu	a2,a0,a1
    3970:	20c72a23          	sw	a2,532(a4)

00003974 <inst_664>:
    3974:	0000b537          	lui	a0,0xb
    3978:	50550513          	addi	a0,a0,1285 # b505 <_end+0x5801>
    397c:	00100593          	li	a1,1
    3980:	00b53633          	sltu	a2,a0,a1
    3984:	20c72c23          	sw	a2,536(a4)

00003988 <inst_665>:
    3988:	0000b537          	lui	a0,0xb
    398c:	50550513          	addi	a0,a0,1285 # b505 <_end+0x5801>
    3990:	000105b7          	lui	a1,0x10
    3994:	00b53633          	sltu	a2,a0,a1
    3998:	20c72e23          	sw	a2,540(a4)

0000399c <inst_666>:
    399c:	00100513          	li	a0,1
    39a0:	00300593          	li	a1,3
    39a4:	00b53633          	sltu	a2,a0,a1
    39a8:	22c72023          	sw	a2,544(a4)

000039ac <inst_667>:
    39ac:	00100513          	li	a0,1
    39b0:	555555b7          	lui	a1,0x55555
    39b4:	55558593          	addi	a1,a1,1365 # 55555555 <_end+0x5554f851>
    39b8:	00b53633          	sltu	a2,a0,a1
    39bc:	22c72223          	sw	a2,548(a4)

000039c0 <inst_668>:
    39c0:	00100513          	li	a0,1
    39c4:	aaaab5b7          	lui	a1,0xaaaab
    39c8:	aaa58593          	addi	a1,a1,-1366 # aaaaaaaa <_end+0xaaaa4da6>
    39cc:	00b53633          	sltu	a2,a0,a1
    39d0:	22c72423          	sw	a2,552(a4)

000039d4 <inst_669>:
    39d4:	00100513          	li	a0,1
    39d8:	00500593          	li	a1,5
    39dc:	00b53633          	sltu	a2,a0,a1
    39e0:	22c72623          	sw	a2,556(a4)

000039e4 <inst_670>:
    39e4:	00100513          	li	a0,1
    39e8:	333335b7          	lui	a1,0x33333
    39ec:	33358593          	addi	a1,a1,819 # 33333333 <_end+0x3332d62f>
    39f0:	00b53633          	sltu	a2,a0,a1
    39f4:	22c72823          	sw	a2,560(a4)

000039f8 <inst_671>:
    39f8:	00100513          	li	a0,1
    39fc:	666665b7          	lui	a1,0x66666
    3a00:	66658593          	addi	a1,a1,1638 # 66666666 <_end+0x66660962>
    3a04:	00b53633          	sltu	a2,a0,a1
    3a08:	22c72a23          	sw	a2,564(a4)

00003a0c <inst_672>:
    3a0c:	00100513          	li	a0,1
    3a10:	0000b5b7          	lui	a1,0xb
    3a14:	50458593          	addi	a1,a1,1284 # b504 <_end+0x5800>
    3a18:	00b53633          	sltu	a2,a0,a1
    3a1c:	22c72c23          	sw	a2,568(a4)

00003a20 <inst_673>:
    3a20:	00100513          	li	a0,1
    3a24:	00000593          	li	a1,0
    3a28:	00b53633          	sltu	a2,a0,a1
    3a2c:	22c72e23          	sw	a2,572(a4)

00003a30 <inst_674>:
    3a30:	00100513          	li	a0,1
    3a34:	000105b7          	lui	a1,0x10
    3a38:	fff58593          	addi	a1,a1,-1 # ffff <_end+0xa2fb>
    3a3c:	00b53633          	sltu	a2,a0,a1
    3a40:	24c72023          	sw	a2,576(a4)

00003a44 <inst_675>:
    3a44:	00100513          	li	a0,1
    3a48:	00200593          	li	a1,2
    3a4c:	00b53633          	sltu	a2,a0,a1
    3a50:	24c72223          	sw	a2,580(a4)

00003a54 <inst_676>:
    3a54:	00100513          	li	a0,1
    3a58:	555555b7          	lui	a1,0x55555
    3a5c:	55458593          	addi	a1,a1,1364 # 55555554 <_end+0x5554f850>
    3a60:	00b53633          	sltu	a2,a0,a1
    3a64:	24c72423          	sw	a2,584(a4)

00003a68 <inst_677>:
    3a68:	00100513          	li	a0,1
    3a6c:	aaaab5b7          	lui	a1,0xaaaab
    3a70:	aa958593          	addi	a1,a1,-1367 # aaaaaaa9 <_end+0xaaaa4da5>
    3a74:	00b53633          	sltu	a2,a0,a1
    3a78:	24c72623          	sw	a2,588(a4)

00003a7c <inst_678>:
    3a7c:	00100513          	li	a0,1
    3a80:	00400593          	li	a1,4
    3a84:	00b53633          	sltu	a2,a0,a1
    3a88:	24c72823          	sw	a2,592(a4)

00003a8c <inst_679>:
    3a8c:	00100513          	li	a0,1
    3a90:	333335b7          	lui	a1,0x33333
    3a94:	33258593          	addi	a1,a1,818 # 33333332 <_end+0x3332d62e>
    3a98:	00b53633          	sltu	a2,a0,a1
    3a9c:	24c72a23          	sw	a2,596(a4)

00003aa0 <inst_680>:
    3aa0:	00100513          	li	a0,1
    3aa4:	666665b7          	lui	a1,0x66666
    3aa8:	66558593          	addi	a1,a1,1637 # 66666665 <_end+0x66660961>
    3aac:	00b53633          	sltu	a2,a0,a1
    3ab0:	24c72c23          	sw	a2,600(a4)

00003ab4 <inst_681>:
    3ab4:	00100513          	li	a0,1
    3ab8:	0000b5b7          	lui	a1,0xb
    3abc:	50358593          	addi	a1,a1,1283 # b503 <_end+0x57ff>
    3ac0:	00b53633          	sltu	a2,a0,a1
    3ac4:	24c72e23          	sw	a2,604(a4)

00003ac8 <inst_682>:
    3ac8:	00100513          	li	a0,1
    3acc:	000105b7          	lui	a1,0x10
    3ad0:	ffe58593          	addi	a1,a1,-2 # fffe <_end+0xa2fa>
    3ad4:	00b53633          	sltu	a2,a0,a1
    3ad8:	26c72023          	sw	a2,608(a4)

00003adc <inst_683>:
    3adc:	00100513          	li	a0,1
    3ae0:	555555b7          	lui	a1,0x55555
    3ae4:	55658593          	addi	a1,a1,1366 # 55555556 <_end+0x5554f852>
    3ae8:	00b53633          	sltu	a2,a0,a1
    3aec:	26c72223          	sw	a2,612(a4)

00003af0 <inst_684>:
    3af0:	00100513          	li	a0,1
    3af4:	aaaab5b7          	lui	a1,0xaaaab
    3af8:	aab58593          	addi	a1,a1,-1365 # aaaaaaab <_end+0xaaaa4da7>
    3afc:	00b53633          	sltu	a2,a0,a1
    3b00:	26c72423          	sw	a2,616(a4)

00003b04 <inst_685>:
    3b04:	00100513          	li	a0,1
    3b08:	00600593          	li	a1,6
    3b0c:	00b53633          	sltu	a2,a0,a1
    3b10:	26c72623          	sw	a2,620(a4)

00003b14 <inst_686>:
    3b14:	00100513          	li	a0,1
    3b18:	333335b7          	lui	a1,0x33333
    3b1c:	33458593          	addi	a1,a1,820 # 33333334 <_end+0x3332d630>
    3b20:	00b53633          	sltu	a2,a0,a1
    3b24:	26c72823          	sw	a2,624(a4)

00003b28 <inst_687>:
    3b28:	00100513          	li	a0,1
    3b2c:	666665b7          	lui	a1,0x66666
    3b30:	66758593          	addi	a1,a1,1639 # 66666667 <_end+0x66660963>
    3b34:	00b53633          	sltu	a2,a0,a1
    3b38:	26c72a23          	sw	a2,628(a4)

00003b3c <inst_688>:
    3b3c:	00100513          	li	a0,1
    3b40:	0000b5b7          	lui	a1,0xb
    3b44:	50558593          	addi	a1,a1,1285 # b505 <_end+0x5801>
    3b48:	00b53633          	sltu	a2,a0,a1
    3b4c:	26c72c23          	sw	a2,632(a4)

00003b50 <inst_689>:
    3b50:	00100513          	li	a0,1
    3b54:	000105b7          	lui	a1,0x10
    3b58:	00b53633          	sltu	a2,a0,a1
    3b5c:	26c72e23          	sw	a2,636(a4)

00003b60 <inst_690>:
    3b60:	00010537          	lui	a0,0x10
    3b64:	00300593          	li	a1,3
    3b68:	00b53633          	sltu	a2,a0,a1
    3b6c:	28c72023          	sw	a2,640(a4)

00003b70 <inst_691>:
    3b70:	00010537          	lui	a0,0x10
    3b74:	555555b7          	lui	a1,0x55555
    3b78:	55558593          	addi	a1,a1,1365 # 55555555 <_end+0x5554f851>
    3b7c:	00b53633          	sltu	a2,a0,a1
    3b80:	28c72223          	sw	a2,644(a4)

00003b84 <inst_692>:
    3b84:	00010537          	lui	a0,0x10
    3b88:	aaaab5b7          	lui	a1,0xaaaab
    3b8c:	aaa58593          	addi	a1,a1,-1366 # aaaaaaaa <_end+0xaaaa4da6>
    3b90:	00b53633          	sltu	a2,a0,a1
    3b94:	28c72423          	sw	a2,648(a4)

00003b98 <inst_693>:
    3b98:	00010537          	lui	a0,0x10
    3b9c:	333335b7          	lui	a1,0x33333
    3ba0:	33358593          	addi	a1,a1,819 # 33333333 <_end+0x3332d62f>
    3ba4:	00b53633          	sltu	a2,a0,a1
    3ba8:	28c72623          	sw	a2,652(a4)

00003bac <inst_694>:
    3bac:	00010537          	lui	a0,0x10
    3bb0:	666665b7          	lui	a1,0x66666
    3bb4:	66658593          	addi	a1,a1,1638 # 66666666 <_end+0x66660962>
    3bb8:	00b53633          	sltu	a2,a0,a1
    3bbc:	28c72823          	sw	a2,656(a4)

00003bc0 <inst_695>:
    3bc0:	00010537          	lui	a0,0x10
    3bc4:	0000b5b7          	lui	a1,0xb
    3bc8:	50458593          	addi	a1,a1,1284 # b504 <_end+0x5800>
    3bcc:	00b53633          	sltu	a2,a0,a1
    3bd0:	28c72a23          	sw	a2,660(a4)

00003bd4 <inst_696>:
    3bd4:	00010537          	lui	a0,0x10
    3bd8:	00000593          	li	a1,0
    3bdc:	00b53633          	sltu	a2,a0,a1
    3be0:	28c72c23          	sw	a2,664(a4)

00003be4 <inst_697>:
    3be4:	00010537          	lui	a0,0x10
    3be8:	000105b7          	lui	a1,0x10
    3bec:	fff58593          	addi	a1,a1,-1 # ffff <_end+0xa2fb>
    3bf0:	00b53633          	sltu	a2,a0,a1
    3bf4:	28c72e23          	sw	a2,668(a4)

00003bf8 <inst_698>:
    3bf8:	00010537          	lui	a0,0x10
    3bfc:	00200593          	li	a1,2
    3c00:	00b53633          	sltu	a2,a0,a1
    3c04:	2ac72023          	sw	a2,672(a4)

00003c08 <inst_699>:
    3c08:	00010537          	lui	a0,0x10
    3c0c:	555555b7          	lui	a1,0x55555
    3c10:	55458593          	addi	a1,a1,1364 # 55555554 <_end+0x5554f850>
    3c14:	00b53633          	sltu	a2,a0,a1
    3c18:	2ac72223          	sw	a2,676(a4)

00003c1c <inst_700>:
    3c1c:	00010537          	lui	a0,0x10
    3c20:	aaaab5b7          	lui	a1,0xaaaab
    3c24:	aa958593          	addi	a1,a1,-1367 # aaaaaaa9 <_end+0xaaaa4da5>
    3c28:	00b53633          	sltu	a2,a0,a1
    3c2c:	2ac72423          	sw	a2,680(a4)

00003c30 <inst_701>:
    3c30:	00010537          	lui	a0,0x10
    3c34:	00400593          	li	a1,4
    3c38:	00b53633          	sltu	a2,a0,a1
    3c3c:	2ac72623          	sw	a2,684(a4)

00003c40 <inst_702>:
    3c40:	00010537          	lui	a0,0x10
    3c44:	333335b7          	lui	a1,0x33333
    3c48:	33258593          	addi	a1,a1,818 # 33333332 <_end+0x3332d62e>
    3c4c:	00b53633          	sltu	a2,a0,a1
    3c50:	2ac72823          	sw	a2,688(a4)

00003c54 <inst_703>:
    3c54:	00010537          	lui	a0,0x10
    3c58:	666665b7          	lui	a1,0x66666
    3c5c:	66558593          	addi	a1,a1,1637 # 66666665 <_end+0x66660961>
    3c60:	00b53633          	sltu	a2,a0,a1
    3c64:	2ac72a23          	sw	a2,692(a4)

00003c68 <inst_704>:
    3c68:	00010537          	lui	a0,0x10
    3c6c:	0000b5b7          	lui	a1,0xb
    3c70:	50358593          	addi	a1,a1,1283 # b503 <_end+0x57ff>
    3c74:	00b53633          	sltu	a2,a0,a1
    3c78:	2ac72c23          	sw	a2,696(a4)

00003c7c <inst_705>:
    3c7c:	00010537          	lui	a0,0x10
    3c80:	000105b7          	lui	a1,0x10
    3c84:	ffe58593          	addi	a1,a1,-2 # fffe <_end+0xa2fa>
    3c88:	00b53633          	sltu	a2,a0,a1
    3c8c:	2ac72e23          	sw	a2,700(a4)

00003c90 <inst_706>:
    3c90:	00010537          	lui	a0,0x10
    3c94:	555555b7          	lui	a1,0x55555
    3c98:	55658593          	addi	a1,a1,1366 # 55555556 <_end+0x5554f852>
    3c9c:	00b53633          	sltu	a2,a0,a1
    3ca0:	2cc72023          	sw	a2,704(a4)

00003ca4 <inst_707>:
    3ca4:	00010537          	lui	a0,0x10
    3ca8:	aaaab5b7          	lui	a1,0xaaaab
    3cac:	aab58593          	addi	a1,a1,-1365 # aaaaaaab <_end+0xaaaa4da7>
    3cb0:	00b53633          	sltu	a2,a0,a1
    3cb4:	2cc72223          	sw	a2,708(a4)

00003cb8 <inst_708>:
    3cb8:	00010537          	lui	a0,0x10
    3cbc:	00600593          	li	a1,6
    3cc0:	00b53633          	sltu	a2,a0,a1
    3cc4:	2cc72423          	sw	a2,712(a4)

00003cc8 <inst_709>:
    3cc8:	00010537          	lui	a0,0x10
    3ccc:	333335b7          	lui	a1,0x33333
    3cd0:	33458593          	addi	a1,a1,820 # 33333334 <_end+0x3332d630>
    3cd4:	00b53633          	sltu	a2,a0,a1
    3cd8:	2cc72623          	sw	a2,716(a4)

00003cdc <inst_710>:
    3cdc:	00010537          	lui	a0,0x10
    3ce0:	666665b7          	lui	a1,0x66666
    3ce4:	66758593          	addi	a1,a1,1639 # 66666667 <_end+0x66660963>
    3ce8:	00b53633          	sltu	a2,a0,a1
    3cec:	2cc72823          	sw	a2,720(a4)

00003cf0 <inst_711>:
    3cf0:	00010537          	lui	a0,0x10
    3cf4:	0000b5b7          	lui	a1,0xb
    3cf8:	50558593          	addi	a1,a1,1285 # b505 <_end+0x5801>
    3cfc:	00b53633          	sltu	a2,a0,a1
    3d00:	2cc72a23          	sw	a2,724(a4)

00003d04 <inst_712>:
    3d04:	00010537          	lui	a0,0x10
    3d08:	00100593          	li	a1,1
    3d0c:	00b53633          	sltu	a2,a0,a1
    3d10:	2cc72c23          	sw	a2,728(a4)

00003d14 <inst_713>:
    3d14:	00010537          	lui	a0,0x10
    3d18:	000105b7          	lui	a1,0x10
    3d1c:	00b53633          	sltu	a2,a0,a1
    3d20:	2cc72e23          	sw	a2,732(a4)

00003d24 <inst_714>:
    3d24:	66666537          	lui	a0,0x66666
    3d28:	66550513          	addi	a0,a0,1637 # 66666665 <_end+0x66660961>
    3d2c:	00600593          	li	a1,6
    3d30:	00b53633          	sltu	a2,a0,a1
    3d34:	2ec72023          	sw	a2,736(a4)

00003d38 <inst_715>:
    3d38:	66666537          	lui	a0,0x66666
    3d3c:	66550513          	addi	a0,a0,1637 # 66666665 <_end+0x66660961>
    3d40:	333335b7          	lui	a1,0x33333
    3d44:	33458593          	addi	a1,a1,820 # 33333334 <_end+0x3332d630>
    3d48:	00b53633          	sltu	a2,a0,a1
    3d4c:	2ec72223          	sw	a2,740(a4)

00003d50 <inst_716>:
    3d50:	66666537          	lui	a0,0x66666
    3d54:	66550513          	addi	a0,a0,1637 # 66666665 <_end+0x66660961>
    3d58:	666665b7          	lui	a1,0x66666
    3d5c:	66758593          	addi	a1,a1,1639 # 66666667 <_end+0x66660963>
    3d60:	00b53633          	sltu	a2,a0,a1
    3d64:	2ec72423          	sw	a2,744(a4)

00003d68 <inst_717>:
    3d68:	66666537          	lui	a0,0x66666
    3d6c:	66550513          	addi	a0,a0,1637 # 66666665 <_end+0x66660961>
    3d70:	0000b5b7          	lui	a1,0xb
    3d74:	50558593          	addi	a1,a1,1285 # b505 <_end+0x5801>
    3d78:	00b53633          	sltu	a2,a0,a1
    3d7c:	2ec72623          	sw	a2,748(a4)

00003d80 <inst_718>:
    3d80:	00001537          	lui	a0,0x1
    3d84:	80050513          	addi	a0,a0,-2048 # 800 <inst_79>
    3d88:	ffe00593          	li	a1,-2
    3d8c:	00b53633          	sltu	a2,a0,a1
    3d90:	2ec72823          	sw	a2,752(a4)

00003d94 <inst_719>:
    3d94:	00100537          	lui	a0,0x100
    3d98:	001005b7          	lui	a1,0x100
    3d9c:	00b53633          	sltu	a2,a0,a1
    3da0:	2ec72a23          	sw	a2,756(a4)

00003da4 <inst_720>:
    3da4:	00400513          	li	a0,4
    3da8:	00200593          	li	a1,2
    3dac:	00b53633          	sltu	a2,a0,a1
    3db0:	2ec72c23          	sw	a2,760(a4)

00003db4 <inst_721>:
    3db4:	e0000537          	lui	a0,0xe0000
    3db8:	fff50513          	addi	a0,a0,-1 # dfffffff <_end+0xdfffa2fb>
    3dbc:	000105b7          	lui	a1,0x10
    3dc0:	00b53633          	sltu	a2,a0,a1
    3dc4:	2ec72e23          	sw	a2,764(a4)
    3dc8:	00000013          	nop
    3dcc:	00000013          	nop

00003dd0 <rvtest_code_end>:
    3dd0:	00001297          	auipc	t0,0x1
    3dd4:	24028293          	addi	t0,t0,576 # 5010 <begin_signature>
    3dd8:	00020337          	lui	t1,0x20
    3ddc:	00430313          	addi	t1,t1,4 # 20004 <_end+0x1a300>
    3de0:	00532023          	sw	t0,0(t1)
    3de4:	00002297          	auipc	t0,0x2
    3de8:	d7c28293          	addi	t0,t0,-644 # 5b60 <end_signature>
    3dec:	00020337          	lui	t1,0x20
    3df0:	00830313          	addi	t1,t1,8 # 20008 <_end+0x1a304>
    3df4:	00532023          	sw	t0,0(t1)
    3df8:	00100293          	li	t0,1
    3dfc:	00020337          	lui	t1,0x20
    3e00:	00532023          	sw	t0,0(t1) # 20000 <_end+0x1a2fc>
    3e04:	0ff0000f          	fence
    3e08:	00100193          	li	gp,1
    3e0c:	00000073          	ecall
	...

Disassembly of section .tohost:

00004000 <tohost>:
	...

00004100 <fromhost>:
	...
